ARM GAS  C:\Users\KOOMOO~1\AppData\Local\Temp\ccgnWu5Y.s 			page 1


   1              		.syntax unified
   2              		.cpu cortex-m3
   3              		.fpu softvfp
   4              		.eabi_attribute 20, 1
   5              		.eabi_attribute 21, 1
   6              		.eabi_attribute 23, 3
   7              		.eabi_attribute 24, 1
   8              		.eabi_attribute 25, 1
   9              		.eabi_attribute 26, 1
  10              		.eabi_attribute 30, 1
  11              		.eabi_attribute 34, 1
  12              		.eabi_attribute 18, 4
  13              		.thumb
  14              		.file	"Custom_Exponent.c"
  15              		.text
  16              	.Ltext0:
  17              		.cfi_sections	.debug_frame
  18              		.global	__aeabi_fcmplt
  19              		.section	.text.Custom_exp,"ax",%progbits
  20              		.align	2
  21              		.global	Custom_exp
  22              		.thumb
  23              		.thumb_func
  24              		.type	Custom_exp, %function
  25              	Custom_exp:
  26              	.LFB63:
  27              		.file 1 "Custom_Exponent.c"
   1:Custom_Exponent.c **** #include <project.h>
   2:Custom_Exponent.c **** #include <stdio.h>
   3:Custom_Exponent.c **** #include <math.h>
   4:Custom_Exponent.c **** #include "Motor.h"
   5:Custom_Exponent.c **** #include "Ultra.h"
   6:Custom_Exponent.c **** #include "Nunchuk.h"
   7:Custom_Exponent.c **** #include "Reflectance.h"
   8:Custom_Exponent.c **** #include "I2C_made.h"
   9:Custom_Exponent.c **** #include "Gyro.h"
  10:Custom_Exponent.c **** #include "Accel_magnet.h"
  11:Custom_Exponent.c **** #include "IR.h"
  12:Custom_Exponent.c **** #include "Ambient.h"
  13:Custom_Exponent.c **** #include "Beep.h"
  14:Custom_Exponent.c **** 
  15:Custom_Exponent.c **** float Custom_exp(float x, float y);
  16:Custom_Exponent.c **** 
  17:Custom_Exponent.c **** 
  18:Custom_Exponent.c **** // Needed for dealing with negative values of blackDiff in main.c.
  19:Custom_Exponent.c **** float Custom_exp(float x, float y)
  20:Custom_Exponent.c **** { 
  28              		.loc 1 20 0
  29              		.cfi_startproc
  30              		@ args = 0, pretend = 0, frame = 0
  31              		@ frame_needed = 0, uses_anonymous_args = 0
  32              	.LVL0:
  33 0000 38B5     		push	{r3, r4, r5, lr}
  34              		.cfi_def_cfa_offset 16
  35              		.cfi_offset 3, -16
  36              		.cfi_offset 4, -12
  37              		.cfi_offset 5, -8
ARM GAS  C:\Users\KOOMOO~1\AppData\Local\Temp\ccgnWu5Y.s 			page 2


  38              		.cfi_offset 14, -4
  39 0002 0546     		mov	r5, r0
  40 0004 0C46     		mov	r4, r1
  21:Custom_Exponent.c ****     if (x < 0)
  41              		.loc 1 21 0
  42 0006 0021     		movs	r1, #0
  43              	.LVL1:
  44 0008 FFF7FEFF 		bl	__aeabi_fcmplt
  45              	.LVL2:
  46 000c 30B1     		cbz	r0, .L6
  22:Custom_Exponent.c ****     {
  23:Custom_Exponent.c ****         return -1 * powf(x, y); // the sign of a negative blackDiff (-) is preserved when raised to
  47              		.loc 1 23 0
  48 000e 2846     		mov	r0, r5
  49 0010 2146     		mov	r1, r4
  50 0012 FFF7FEFF 		bl	powf
  51              	.LVL3:
  52 0016 00F10040 		add	r0, r0, #-2147483648
  53 001a 38BD     		pop	{r3, r4, r5, pc}
  54              	.LVL4:
  55              	.L6:
  24:Custom_Exponent.c **** 
  25:Custom_Exponent.c ****     } else { return powf(x, y); }
  56              		.loc 1 25 0
  57 001c 2846     		mov	r0, r5
  58 001e 2146     		mov	r1, r4
  59 0020 FFF7FEFF 		bl	powf
  60              	.LVL5:
  26:Custom_Exponent.c **** 
  27:Custom_Exponent.c **** }
  61              		.loc 1 27 0
  62 0024 38BD     		pop	{r3, r4, r5, pc}
  63              		.cfi_endproc
  64              	.LFE63:
  65              		.size	Custom_exp, .-Custom_exp
  66 0026 00BF     		.text
  67              	.Letext0:
  68              		.file 2 "c:\\program files (x86)\\cypress\\psoc creator\\4.0\\psoc creator\\import\\gnu\\arm\\4.9.
  69              		.file 3 "c:\\program files (x86)\\cypress\\psoc creator\\4.0\\psoc creator\\import\\gnu\\arm\\4.9.
  70              		.file 4 "Generated_Source\\PSoC5/core_cm3.h"
  71              		.file 5 "c:\\program files (x86)\\cypress\\psoc creator\\4.0\\psoc creator\\import\\gnu\\arm\\4.9.