ARM GAS  C:\Users\VILLEL~1\AppData\Local\Temp\cca7y0ME.s 			page 1


   1              		.syntax unified
   2              		.cpu cortex-m3
   3              		.fpu softvfp
   4              		.eabi_attribute 20, 1
   5              		.eabi_attribute 21, 1
   6              		.eabi_attribute 23, 3
   7              		.eabi_attribute 24, 1
   8              		.eabi_attribute 25, 1
   9              		.eabi_attribute 26, 1
  10              		.eabi_attribute 30, 1
  11              		.eabi_attribute 34, 1
  12              		.eabi_attribute 18, 4
  13              		.thumb
  14              		.file	"Custom_Motor.c"
  15              		.text
  16              	.Ltext0:
  17              		.cfi_sections	.debug_frame
  18              		.section	.text.Custom_forward,"ax",%progbits
  19              		.align	2
  20              		.global	Custom_forward
  21              		.thumb
  22              		.thumb_func
  23              		.type	Custom_forward, %function
  24              	Custom_forward:
  25              	.LFB63:
  26              		.file 1 "Custom_Motor.c"
   1:Custom_Motor.c **** #include <project.h>
   2:Custom_Motor.c **** #include <stdio.h>
   3:Custom_Motor.c **** #include "Motor.h"
   4:Custom_Motor.c **** #include "Ultra.h"
   5:Custom_Motor.c **** #include "Nunchuk.h"
   6:Custom_Motor.c **** #include "Reflectance.h"
   7:Custom_Motor.c **** #include "I2C_made.h"
   8:Custom_Motor.c **** #include "Gyro.h"
   9:Custom_Motor.c **** #include "Accel_magnet.h"
  10:Custom_Motor.c **** #include "IR.h"
  11:Custom_Motor.c **** #include "Ambient.h"
  12:Custom_Motor.c **** #include "Beep.h"
  13:Custom_Motor.c **** 
  14:Custom_Motor.c **** void Custom_forward(uint8 speed);
  15:Custom_Motor.c **** void Right_turn(uint8 speed);
  16:Custom_Motor.c **** void Left_turn(uint8 speed);
  17:Custom_Motor.c **** void Forceful_left_turn(uint8 speed);
  18:Custom_Motor.c **** void Forceful_right_turn(uint8 speed);
  19:Custom_Motor.c **** void Corrective_twitch(uint8 dir);
  20:Custom_Motor.c **** 
  21:Custom_Motor.c **** 
  22:Custom_Motor.c **** 
  23:Custom_Motor.c **** // Custom class for defining motor movement methods.
  24:Custom_Motor.c **** 
  25:Custom_Motor.c **** // Custom 'forward' method to calibrate the forward moving direction (default motor_forward() veers
  26:Custom_Motor.c **** // to the left due to the physical differences between the two motors).
  27:Custom_Motor.c **** // NOTE: The motors should always be stopped by using the default method, because this method 
  28:Custom_Motor.c **** // will leave the left motor running if used for that purpose!
  29:Custom_Motor.c **** void Custom_forward(uint8 speed)
  30:Custom_Motor.c **** {
  27              		.loc 1 30 0
ARM GAS  C:\Users\VILLEL~1\AppData\Local\Temp\cca7y0ME.s 			page 2


  28              		.cfi_startproc
  29              		@ args = 0, pretend = 0, frame = 0
  30              		@ frame_needed = 0, uses_anonymous_args = 0
  31              	.LVL0:
  32 0000 10B5     		push	{r4, lr}
  33              		.cfi_def_cfa_offset 8
  34              		.cfi_offset 4, -8
  35              		.cfi_offset 14, -4
  36 0002 0446     		mov	r4, r0
  31:Custom_Motor.c ****     MotorDirLeft_Write(0);      // set LeftMotor forward mode
  37              		.loc 1 31 0
  38 0004 0020     		movs	r0, #0
  39              	.LVL1:
  40 0006 FFF7FEFF 		bl	MotorDirLeft_Write
  41              	.LVL2:
  32:Custom_Motor.c ****     MotorDirRight_Write(0);     // set RightMotor forward mode
  42              		.loc 1 32 0
  43 000a 0020     		movs	r0, #0
  44 000c FFF7FEFF 		bl	MotorDirRight_Write
  45              	.LVL3:
  33:Custom_Motor.c ****     PWM_WriteCompare1(speed + 7); 
  46              		.loc 1 33 0
  47 0010 E01D     		adds	r0, r4, #7
  48 0012 C0B2     		uxtb	r0, r0
  49 0014 FFF7FEFF 		bl	PWM_WriteCompare1
  50              	.LVL4:
  34:Custom_Motor.c ****     PWM_WriteCompare2(speed); 
  51              		.loc 1 34 0
  52 0018 2046     		mov	r0, r4
  53 001a FFF7FEFF 		bl	PWM_WriteCompare2
  54              	.LVL5:
  55 001e 10BD     		pop	{r4, pc}
  56              		.cfi_endproc
  57              	.LFE63:
  58              		.size	Custom_forward, .-Custom_forward
  59              		.section	.text.Right_turn,"ax",%progbits
  60              		.align	2
  61              		.global	Right_turn
  62              		.thumb
  63              		.thumb_func
  64              		.type	Right_turn, %function
  65              	Right_turn:
  66              	.LFB64:
  35:Custom_Motor.c **** 
  36:Custom_Motor.c **** }
  37:Custom_Motor.c **** 
  38:Custom_Motor.c **** // Called in main.c when the robot is starting to veer to the left (off the black line).
  39:Custom_Motor.c **** // NOTE: It SLOWS down the right motor in order to turn to the right! This is to preserve 
  40:Custom_Motor.c **** // speed, as we can drive at full speed by default if we use this approach
  41:Custom_Motor.c **** // (instead of speeding up the left motor to turn).
  42:Custom_Motor.c **** void Right_turn(uint8 speed)
  43:Custom_Motor.c **** {   
  67              		.loc 1 43 0
  68              		.cfi_startproc
  69              		@ args = 0, pretend = 0, frame = 0
  70              		@ frame_needed = 0, uses_anonymous_args = 0
  71              	.LVL6:
ARM GAS  C:\Users\VILLEL~1\AppData\Local\Temp\cca7y0ME.s 			page 3


  72 0000 08B5     		push	{r3, lr}
  73              		.cfi_def_cfa_offset 8
  74              		.cfi_offset 3, -8
  75              		.cfi_offset 14, -4
  44:Custom_Motor.c ****     PWM_WriteCompare2(speed); 
  76              		.loc 1 44 0
  77 0002 FFF7FEFF 		bl	PWM_WriteCompare2
  78              	.LVL7:
  79 0006 08BD     		pop	{r3, pc}
  80              		.cfi_endproc
  81              	.LFE64:
  82              		.size	Right_turn, .-Right_turn
  83              		.section	.text.Left_turn,"ax",%progbits
  84              		.align	2
  85              		.global	Left_turn
  86              		.thumb
  87              		.thumb_func
  88              		.type	Left_turn, %function
  89              	Left_turn:
  90              	.LFB65:
  45:Custom_Motor.c **** }
  46:Custom_Motor.c **** 
  47:Custom_Motor.c **** // Called in main.c when the robot is starting to veer to the right (off the black line).
  48:Custom_Motor.c **** // NOTE: It SLOWS down the left motor in order to turn to the left! This is to preserve 
  49:Custom_Motor.c **** // speed, as we can drive at full speed by default if we use this approach
  50:Custom_Motor.c **** // (instead of speeding up the right motor to turn).
  51:Custom_Motor.c **** void Left_turn(uint8 speed)
  52:Custom_Motor.c **** {
  91              		.loc 1 52 0
  92              		.cfi_startproc
  93              		@ args = 0, pretend = 0, frame = 0
  94              		@ frame_needed = 0, uses_anonymous_args = 0
  95              	.LVL8:
  96 0000 08B5     		push	{r3, lr}
  97              		.cfi_def_cfa_offset 8
  98              		.cfi_offset 3, -8
  99              		.cfi_offset 14, -4
  53:Custom_Motor.c ****         PWM_WriteCompare1(speed);
 100              		.loc 1 53 0
 101 0002 FFF7FEFF 		bl	PWM_WriteCompare1
 102              	.LVL9:
 103 0006 08BD     		pop	{r3, pc}
 104              		.cfi_endproc
 105              	.LFE65:
 106              		.size	Left_turn, .-Left_turn
 107              		.section	.text.Forceful_left_turn,"ax",%progbits
 108              		.align	2
 109              		.global	Forceful_left_turn
 110              		.thumb
 111              		.thumb_func
 112              		.type	Forceful_left_turn, %function
 113              	Forceful_left_turn:
 114              	.LFB66:
  54:Custom_Motor.c **** }
  55:Custom_Motor.c **** 
  56:Custom_Motor.c **** // For use in steep curves. Turns to the left more forcefully, by spinning the left track backwards
  57:Custom_Motor.c **** void Forceful_left_turn(uint8 speed)
ARM GAS  C:\Users\VILLEL~1\AppData\Local\Temp\cca7y0ME.s 			page 4


  58:Custom_Motor.c **** {
 115              		.loc 1 58 0
 116              		.cfi_startproc
 117              		@ args = 0, pretend = 0, frame = 0
 118              		@ frame_needed = 0, uses_anonymous_args = 0
 119              	.LVL10:
 120 0000 10B5     		push	{r4, lr}
 121              		.cfi_def_cfa_offset 8
 122              		.cfi_offset 4, -8
 123              		.cfi_offset 14, -4
 124 0002 0446     		mov	r4, r0
  59:Custom_Motor.c ****     MotorDirLeft_Write(1); 
 125              		.loc 1 59 0
 126 0004 0120     		movs	r0, #1
 127              	.LVL11:
 128 0006 FFF7FEFF 		bl	MotorDirLeft_Write
 129              	.LVL12:
  60:Custom_Motor.c ****     PWM_WriteCompare1(248 - speed); // to preseve the behaviour where a lower speed value leads to 
 130              		.loc 1 60 0
 131 000a C4F1F800 		rsb	r0, r4, #248
 132 000e C0B2     		uxtb	r0, r0
 133 0010 FFF7FEFF 		bl	PWM_WriteCompare1
 134              	.LVL13:
 135 0014 10BD     		pop	{r4, pc}
 136              		.cfi_endproc
 137              	.LFE66:
 138              		.size	Forceful_left_turn, .-Forceful_left_turn
 139 0016 00BF     		.section	.text.Forceful_right_turn,"ax",%progbits
 140              		.align	2
 141              		.global	Forceful_right_turn
 142              		.thumb
 143              		.thumb_func
 144              		.type	Forceful_right_turn, %function
 145              	Forceful_right_turn:
 146              	.LFB67:
  61:Custom_Motor.c **** }
  62:Custom_Motor.c **** 
  63:Custom_Motor.c **** // For use in steep curves. Turns to the right more forcefully, by spinning the right track backwar
  64:Custom_Motor.c **** void Forceful_right_turn(uint8 speed)
  65:Custom_Motor.c **** {
 147              		.loc 1 65 0
 148              		.cfi_startproc
 149              		@ args = 0, pretend = 0, frame = 0
 150              		@ frame_needed = 0, uses_anonymous_args = 0
 151              	.LVL14:
 152 0000 10B5     		push	{r4, lr}
 153              		.cfi_def_cfa_offset 8
 154              		.cfi_offset 4, -8
 155              		.cfi_offset 14, -4
 156 0002 0446     		mov	r4, r0
  66:Custom_Motor.c ****     MotorDirRight_Write(1); 
 157              		.loc 1 66 0
 158 0004 0120     		movs	r0, #1
 159              	.LVL15:
 160 0006 FFF7FEFF 		bl	MotorDirRight_Write
 161              	.LVL16:
  67:Custom_Motor.c ****     PWM_WriteCompare2(248 - speed); // to preseve the behaviour where a lower speed value leads to 
ARM GAS  C:\Users\VILLEL~1\AppData\Local\Temp\cca7y0ME.s 			page 5


 162              		.loc 1 67 0
 163 000a C4F1F800 		rsb	r0, r4, #248
 164 000e C0B2     		uxtb	r0, r0
 165 0010 FFF7FEFF 		bl	PWM_WriteCompare2
 166              	.LVL17:
 167 0014 10BD     		pop	{r4, pc}
 168              		.cfi_endproc
 169              	.LFE67:
 170              		.size	Forceful_right_turn, .-Forceful_right_turn
 171 0016 00BF     		.section	.text.Corrective_twitch,"ax",%progbits
 172              		.align	2
 173              		.global	Corrective_twitch
 174              		.thumb
 175              		.thumb_func
 176              		.type	Corrective_twitch, %function
 177              	Corrective_twitch:
 178              	.LFB68:
  68:Custom_Motor.c **** }
  69:Custom_Motor.c **** 
  70:Custom_Motor.c **** // An experimental method to be used for a slight 'corrective twitch' after a right or left turn.
  71:Custom_Motor.c **** // At the moment, it simply stops the respective motor for a small, fixed amount of time (technical
  72:Custom_Motor.c **** // but due to where this method will be called, in practice this should never actually occur).
  73:Custom_Motor.c **** void Corrective_twitch(uint8 dir)
  74:Custom_Motor.c **** {
 179              		.loc 1 74 0
 180              		.cfi_startproc
 181              		@ args = 0, pretend = 0, frame = 0
 182              		@ frame_needed = 0, uses_anonymous_args = 0
 183              	.LVL18:
 184 0000 08B5     		push	{r3, lr}
 185              		.cfi_def_cfa_offset 8
 186              		.cfi_offset 3, -8
 187              		.cfi_offset 14, -4
  75:Custom_Motor.c ****     // '0' = left turn
  76:Custom_Motor.c ****     if (dir == 0) 
 188              		.loc 1 76 0
 189 0002 28B9     		cbnz	r0, .L12
  77:Custom_Motor.c ****     {
  78:Custom_Motor.c ****         PWM_WriteCompare1(0);
 190              		.loc 1 78 0
 191 0004 FFF7FEFF 		bl	PWM_WriteCompare1
 192              	.LVL19:
  79:Custom_Motor.c ****         CyDelay(2); // dummy value; optimal value must be found experimentally
 193              		.loc 1 79 0
 194 0008 0220     		movs	r0, #2
 195 000a FFF7FEFF 		bl	CyDelay
 196              	.LVL20:
 197 000e 08BD     		pop	{r3, pc}
 198              	.LVL21:
 199              	.L12:
  80:Custom_Motor.c ****         
  81:Custom_Motor.c ****       // '1' = right turn  
  82:Custom_Motor.c ****     } else if (dir == 1) {
 200              		.loc 1 82 0
 201 0010 0128     		cmp	r0, #1
 202 0012 05D1     		bne	.L11
  83:Custom_Motor.c ****     
ARM GAS  C:\Users\VILLEL~1\AppData\Local\Temp\cca7y0ME.s 			page 6


  84:Custom_Motor.c ****         PWM_WriteCompare2(0);
 203              		.loc 1 84 0
 204 0014 0020     		movs	r0, #0
 205              	.LVL22:
 206 0016 FFF7FEFF 		bl	PWM_WriteCompare2
 207              	.LVL23:
  85:Custom_Motor.c ****         CyDelay(2); // dummy value; optimal value must be found experimentally
 208              		.loc 1 85 0
 209 001a 0220     		movs	r0, #2
 210 001c FFF7FEFF 		bl	CyDelay
 211              	.LVL24:
 212              	.L11:
 213 0020 08BD     		pop	{r3, pc}
 214              		.cfi_endproc
 215              	.LFE68:
 216              		.size	Corrective_twitch, .-Corrective_twitch
 217 0022 00BF     		.text
 218              	.Letext0:
 219              		.file 2 "c:\\program files (x86)\\cypress\\psoc creator\\4.0\\psoc creator\\import\\gnu\\arm\\4.9.
 220              		.file 3 "c:\\program files (x86)\\cypress\\psoc creator\\4.0\\psoc creator\\import\\gnu\\arm\\4.9.
 221              		.file 4 "Generated_Source\\PSoC5/cytypes.h"
 222              		.file 5 "Generated_Source\\PSoC5/MotorDirLeft.h"
 223              		.file 6 "Generated_Source\\PSoC5/MotorDirRight.h"
 224              		.file 7 "Generated_Source\\PSoC5/PWM.h"
 225              		.file 8 "Generated_Source\\PSoC5/core_cm3.h"
 226              		.file 9 "Generated_Source\\PSoC5/CyLib.h"