ARM GAS  C:\Users\VILLEL~1\AppData\Local\Temp\cc6NuCZR.s 			page 1


   1              		.syntax unified
   2              		.cpu cortex-m3
   3              		.fpu softvfp
   4              		.eabi_attribute 20, 1
   5              		.eabi_attribute 21, 1
   6              		.eabi_attribute 23, 3
   7              		.eabi_attribute 24, 1
   8              		.eabi_attribute 25, 1
   9              		.eabi_attribute 26, 1
  10              		.eabi_attribute 30, 1
  11              		.eabi_attribute 34, 1
  12              		.eabi_attribute 18, 4
  13              		.thumb
  14              		.file	"main.c"
  15              		.text
  16              	.Ltext0:
  17              		.cfi_sections	.debug_frame
  18              		.global	__aeabi_ui2f
  19              		.global	__aeabi_fsub
  20              		.global	__aeabi_fcmplt
  21              		.global	__aeabi_fdiv
  22              		.global	__aeabi_f2d
  23              		.global	__aeabi_dmul
  24              		.global	__aeabi_d2uiz
  25              		.global	__aeabi_fmul
  26              		.global	__aeabi_i2f
  27              		.global	__aeabi_f2uiz
  28              		.section	.text.main,"ax",%progbits
  29              		.align	2
  30              		.global	main
  31              		.thumb
  32              		.thumb_func
  33              		.type	main, %function
  34              	main:
  35              	.LFB63:
  36              		.file 1 "main.c"
   1:main.c        **** /**
   2:main.c        **** * @mainpage ZumoBot Project
   3:main.c        **** * @brief    You can make your own ZumoBot with various sensors.
   4:main.c        **** * @details  <br><br>
   5:main.c        ****     <p>
   6:main.c        ****     <B>General</B><br>
   7:main.c        ****     You will use Pololu Zumo Shields for your robot project with CY8CKIT-059(PSoC 5LP) from Cypress
   8:main.c        ****     library has basic methods of various sensors and communications so that you can make what you w
   9:main.c        ****     <br><br>
  10:main.c        ****     </p>
  11:main.c        **** */
  12:main.c        ****     
  13:main.c        **** /**
  14:main.c        ****  * @file    main.c
  15:main.c        ****  * @brief   
  16:main.c        ****  * @details  ** You should enable global interrupt for operating properly. **<br>&nbsp;&nbsp;&nbsp;
  17:main.c        **** */
  18:main.c        **** 
  19:main.c        **** #include <project.h>
  20:main.c        **** #include <stdio.h>
  21:main.c        **** #include "Motor.h"
ARM GAS  C:\Users\VILLEL~1\AppData\Local\Temp\cc6NuCZR.s 			page 2


  22:main.c        **** #include "Ultra.h"
  23:main.c        **** #include "Nunchuk.h"
  24:main.c        **** #include "Reflectance.h"
  25:main.c        **** #include "I2C_made.h"
  26:main.c        **** #include "Gyro.h"
  27:main.c        **** #include "Accel_magnet.h"
  28:main.c        **** #include "IR.h"
  29:main.c        **** #include "Ambient.h"
  30:main.c        **** #include "Beep.h"
  31:main.c        **** 
  32:main.c        **** int rread(void);
  33:main.c        **** void motor_start();
  34:main.c        **** void motor_forward(uint8 speed,uint32 delay);
  35:main.c        **** void Custom_forward(uint8 speed);
  36:main.c        **** void motor_turn(uint8 l_speed, uint8 r_speed, uint32 delay);
  37:main.c        **** void reflectance_set_threshold(uint16_t l3, uint16_t l1, uint16_t r1, uint16_t r3);
  38:main.c        **** void Measure_Voltage();
  39:main.c        **** void Right_turn(uint8 speed);
  40:main.c        **** void Left_turn(uint8 speed);
  41:main.c        **** 
  42:main.c        **** 
  43:main.c        **** int main()
  44:main.c        **** {
  37              		.loc 1 44 0
  38              		.cfi_startproc
  39              		@ args = 0, pretend = 0, frame = 16
  40              		@ frame_needed = 0, uses_anonymous_args = 0
  41 0000 2DE9F043 		push	{r4, r5, r6, r7, r8, r9, lr}
  42              		.cfi_def_cfa_offset 28
  43              		.cfi_offset 4, -28
  44              		.cfi_offset 5, -24
  45              		.cfi_offset 6, -20
  46              		.cfi_offset 7, -16
  47              		.cfi_offset 8, -12
  48              		.cfi_offset 9, -8
  49              		.cfi_offset 14, -4
  50 0004 85B0     		sub	sp, sp, #20
  51              		.cfi_def_cfa_offset 48
  52              	.LVL0:
  45:main.c        ****     // 'Time counter' for the voltage measurement interval
  46:main.c        ****     int cycles = 0;
  47:main.c        ****     
  48:main.c        ****     // Needed for using the button to start the robot's movement routine
  49:main.c        ****     int exit = 0;
  50:main.c        ****     
  51:main.c        ****     int exitMain = 0;
  52:main.c        ****     
  53:main.c        ****     int check = 0;
  54:main.c        ****     
  55:main.c        ****     // turn value for the motors to use
  56:main.c        ****     uint8 turn = 0;
  57:main.c        ****     
  58:main.c        ****     // color thresholds for use in different behaviours
  59:main.c        ****     int black_threshold_l3 = 21000;
  60:main.c        ****     int black_threshold_l1 = 17500;
  61:main.c        ****     int black_threshold_r1 = 22000;
  62:main.c        ****     int black_threshold_r3 = 21500;
ARM GAS  C:\Users\VILLEL~1\AppData\Local\Temp\cc6NuCZR.s 			page 3


  63:main.c        ****         
  64:main.c        ****     int white_threshold_l3 = 5793;
  65:main.c        ****     int white_threshold_l1 = 4500;
  66:main.c        ****     int white_threshold_r1 = 4522;
  67:main.c        ****     int white_threshold_r3 = 6293;
  68:main.c        ****     
  69:main.c        ****     int maxDiff_l3 = black_threshold_l3 - white_threshold_l3;
  70:main.c        ****     int maxDiff_l1 = black_threshold_l1 - white_threshold_l1;
  71:main.c        ****     int maxDiff_r1 = black_threshold_r1 - white_threshold_r1;
  72:main.c        ****     int maxDiff_r3 = black_threshold_r3 - white_threshold_r3;
  73:main.c        ****     
  74:main.c        ****     float blackness1_left = 23999;
  75:main.c        ****     float blackness2_left = 23999;
  76:main.c        ****     float blackness1_right = 23999;
  77:main.c        ****     float blackness2_right = 23999;
  78:main.c        ****     
  79:main.c        ****     float diff_left = 0.0;
  80:main.c        ****     float diff_right = 0.0;
  81:main.c        ****     
  82:main.c        ****     // maximum movement speed of the robot
  83:main.c        ****     uint8 speed = 248;
  84:main.c        ****     
  85:main.c        ****     // reflectance sub-limits for different turning behaviour
  86:main.c        ****     //int left_forceful_limit = 14000;
  87:main.c        ****     //int right_forceful_limit = 17000;
  88:main.c        ****       
  89:main.c        ****     struct sensors_ ref;
  90:main.c        ****     struct sensors_ dig;
  91:main.c        ****     CyGlobalIntEnable; 
  53              		.loc 1 91 0
  54              	@ 91 "main.c" 1
  55 0006 62B6     		CPSIE   i
  56              	@ 0 "" 2
  92:main.c        ****     UART_1_Start();
  57              		.loc 1 92 0
  58              		.thumb
  59 0008 FFF7FEFF 		bl	UART_1_Start
  60              	.LVL1:
  93:main.c        ****     ADC_Battery_Start();   
  61              		.loc 1 93 0
  62 000c FFF7FEFF 		bl	ADC_Battery_Start
  63              	.LVL2:
  94:main.c        ****     Measure_Voltage(); // measure battery voltage at robot start
  64              		.loc 1 94 0
  65 0010 FFF7FEFF 		bl	Measure_Voltage
  66              	.LVL3:
  95:main.c        ****     
  96:main.c        ****     motor_start();
  67              		.loc 1 96 0
  68 0014 FFF7FEFF 		bl	motor_start
  69              	.LVL4:
  97:main.c        ****     motor_forward(0, 0); // stop the motor at robot start, as it seems to run at a low speed if sim
  70              		.loc 1 97 0
  71 0018 0020     		movs	r0, #0
  72 001a 0146     		mov	r1, r0
  73 001c FFF7FEFF 		bl	motor_forward
  74              	.LVL5:
ARM GAS  C:\Users\VILLEL~1\AppData\Local\Temp\cc6NuCZR.s 			page 4


  98:main.c        ****     
  99:main.c        ****     // Initialize IR sensors
 100:main.c        ****     sensor_isr_StartEx(sensor_isr_handler); 
  75              		.loc 1 100 0
  76 0020 7148     		ldr	r0, .L22
  77 0022 FFF7FEFF 		bl	sensor_isr_StartEx
  78              	.LVL6:
 101:main.c        ****     reflectance_set_threshold(black_threshold_l3, black_threshold_l1, black_threshold_r1, black_thr
  79              		.loc 1 101 0
  80 0026 45F20820 		movw	r0, #21000
  81 002a 44F25C41 		movw	r1, #17500
  82 002e 45F2F052 		movw	r2, #22000
  83 0032 45F2FC33 		movw	r3, #21500
  84 0036 FFF7FEFF 		bl	reflectance_set_threshold
  85              	.LVL7:
 102:main.c        ****     reflectance_start();
  86              		.loc 1 102 0
  87 003a FFF7FEFF 		bl	reflectance_start
  88              	.LVL8:
 103:main.c        ****     IR_led_Write(1);
  89              		.loc 1 103 0
  90 003e 0120     		movs	r0, #1
  91 0040 FFF7FEFF 		bl	IR_led_Write
  92              	.LVL9:
 104:main.c        **** 
 105:main.c        ****     //printf("\nBoot\n");
 106:main.c        **** 
 107:main.c        ****     //BatteryLed_Write(1); // Switch led on 
 108:main.c        ****     BatteryLed_Write(0); // Switch led off 
  93              		.loc 1 108 0
  94 0044 0020     		movs	r0, #0
  95 0046 FFF7FEFF 		bl	BatteryLed_Write
  96              	.LVL10:
  49:main.c        ****     
  97              		.loc 1 49 0
  98 004a 0024     		movs	r4, #0
 109:main.c        ****     uint8 button;
 110:main.c        ****     //button = SW1_Read(); // read SW1 on pSoC board
 111:main.c        ****     // To start the robot's movement routine, press the button
 112:main.c        ****     while (exit == 0) 
  99              		.loc 1 112 0
 100 004c 06E0     		b	.L3
 101              	.LVL11:
 102              	.L4:
 113:main.c        ****     {
 114:main.c        ****         button = SW1_Read();
 103              		.loc 1 114 0
 104 004e FFF7FEFF 		bl	SW1_Read
 105              	.LVL12:
 115:main.c        ****         
 116:main.c        ****         if (button == 0) 
 106              		.loc 1 116 0
 107 0052 18B9     		cbnz	r0, .L3
 108              	.LVL13:
 117:main.c        ****         {
 118:main.c        ****             exit = 1;
 119:main.c        ****             CyDelay(10);
ARM GAS  C:\Users\VILLEL~1\AppData\Local\Temp\cc6NuCZR.s 			page 5


 109              		.loc 1 119 0
 110 0054 0A20     		movs	r0, #10
 111              	.LVL14:
 112 0056 FFF7FEFF 		bl	CyDelay
 113              	.LVL15:
 118:main.c        ****             CyDelay(10);
 114              		.loc 1 118 0
 115 005a 0124     		movs	r4, #1
 116              	.LVL16:
 117              	.L3:
 112:main.c        ****     {
 118              		.loc 1 112 0
 119 005c 002C     		cmp	r4, #0
 120 005e F6D0     		beq	.L4
 120:main.c        ****         }
 121:main.c        ****     }
 122:main.c        ****     
 123:main.c        ****     Custom_forward(speed);
 121              		.loc 1 123 0
 122 0060 F820     		movs	r0, #248
 123 0062 FFF7FEFF 		bl	Custom_forward
 124              	.LVL17:
  76:main.c        ****     float blackness2_right = 23999;
 125              		.loc 1 76 0
 126 0066 DFF8A081 		ldr	r8, .L22+32
  74:main.c        ****     float blackness2_left = 23999;
 127              		.loc 1 74 0
 128 006a 4446     		mov	r4, r8
 129              	.LVL18:
  46:main.c        ****     
 130              		.loc 1 46 0
 131 006c 4FF00009 		mov	r9, #0
 124:main.c        **** 
 125:main.c        ****     
 126:main.c        ****     while(exitMain == 0)
 132              		.loc 1 126 0
 133 0070 AEE0     		b	.L5
 134              	.LVL19:
 135              	.L19:
 136 0072 0026     		movs	r6, #0
 137              	.LVL20:
 138              	.L8:
 127:main.c        ****     {    
 128:main.c        ****         
 129:main.c        ****         reflectance_read(&ref); // raw sensor value; 0 - 24 000
 130:main.c        ****         //printf("%d %d %d %d \r\n", ref.l3, ref.l1, ref.r1, ref.r3);       //print out each period
 131:main.c        ****         reflectance_digital(&dig);      //print out 0 or 1 according to results of reflectance peri
 132:main.c        ****         //printf("%d %d %d %d \r\n", dig.l3, dig.l1, dig.r1, dig.r3);        //print out 0 or 1 acc
 133:main.c        ****         //CyDelay(1000); // comment this delay out when doing movement tests / racing !!!
 134:main.c        ****         
 135:main.c        ****         
 136:main.c        ****         // Line-following logic.
 137:main.c        ****         // NOTE: due to the calibration of the motor speeds, 248 (255 - 7) is our current max speed
 138:main.c        ****         if (dig.l1 == 1)
 139:main.c        ****         { 
 140:main.c        ****             // When the robot starts to veer off to the left, do a correction towards the right, un
 141:main.c        ****             do {
ARM GAS  C:\Users\VILLEL~1\AppData\Local\Temp\cc6NuCZR.s 			page 6


 142:main.c        ****                 
 143:main.c        ****                 // Obtain an initial value for blackness1_left, then close access to the if stateme
 144:main.c        ****                 if (check == 0)
 139              		.loc 1 144 0
 140 0074 66B9     		cbnz	r6, .L15
 145:main.c        ****                 {
 146:main.c        ****                     reflectance_read(&ref);
 141              		.loc 1 146 0
 142 0076 02A8     		add	r0, sp, #8
 143 0078 FFF7FEFF 		bl	reflectance_read
 144              	.LVL21:
 147:main.c        ****                     blackness1_left = ref.l1;
 145              		.loc 1 147 0
 146 007c BDF80A00 		ldrh	r0, [sp, #10]
 147 0080 FFF7FEFF 		bl	__aeabi_ui2f
 148              	.LVL22:
 149 0084 0546     		mov	r5, r0
 150              	.LVL23:
 148:main.c        ****                     CyDelay(1);
 151              		.loc 1 148 0
 152 0086 0120     		movs	r0, #1
 153              	.LVL24:
 154 0088 FFF7FEFF 		bl	CyDelay
 155              	.LVL25:
 149:main.c        ****                     check = 1;                   
 156              		.loc 1 149 0
 157 008c 0126     		movs	r6, #1
 158 008e 00E0     		b	.L6
 159              	.LVL26:
 160              	.L15:
 161 0090 2546     		mov	r5, r4
 162              	.LVL27:
 163              	.L6:
 150:main.c        ****                 }
 151:main.c        ****                 
 152:main.c        ****                 // Obtain a second value (1 millisecond later).
 153:main.c        ****                 reflectance_read(&ref);
 164              		.loc 1 153 0
 165 0092 02A8     		add	r0, sp, #8
 166 0094 FFF7FEFF 		bl	reflectance_read
 167              	.LVL28:
 154:main.c        ****                 reflectance_digital(&dig); // needed to check if the turn should be ended
 168              		.loc 1 154 0
 169 0098 6846     		mov	r0, sp
 170 009a FFF7FEFF 		bl	reflectance_digital
 171              	.LVL29:
 155:main.c        ****                 blackness2_left = ref.l1;
 172              		.loc 1 155 0
 173 009e BDF80A00 		ldrh	r0, [sp, #10]
 174 00a2 FFF7FEFF 		bl	__aeabi_ui2f
 175              	.LVL30:
 176 00a6 0446     		mov	r4, r0
 177              	.LVL31:
 156:main.c        ****                 
 157:main.c        ****                 // Calculate the difference between the two values.
 158:main.c        ****                 // (A check for negativity is needed due to the 'wobbly' behaviour of the reflectan
 159:main.c        ****                 diff_left = blackness1_left - blackness2_left;
ARM GAS  C:\Users\VILLEL~1\AppData\Local\Temp\cc6NuCZR.s 			page 7


 178              		.loc 1 159 0
 179 00a8 2846     		mov	r0, r5
 180              	.LVL32:
 181 00aa 2146     		mov	r1, r4
 182 00ac FFF7FEFF 		bl	__aeabi_fsub
 183              	.LVL33:
 184 00b0 0546     		mov	r5, r0
 185              	.LVL34:
 160:main.c        ****                 if (diff_left < 0)
 186              		.loc 1 160 0
 187 00b2 0021     		movs	r1, #0
 188 00b4 FFF7FEFF 		bl	__aeabi_fcmplt
 189              	.LVL35:
 190 00b8 00B1     		cbz	r0, .L7
 161:main.c        ****                 {
 162:main.c        ****                     diff_left = 0;
 191              		.loc 1 162 0
 192 00ba 0025     		movs	r5, #0
 193              	.LVL36:
 194              	.L7:
 163:main.c        ****                 }
 164:main.c        ****                 
 165:main.c        ****                 // Determine the correct turn amount (0 is max turn, 248 is no turn).
 166:main.c        ****                 
 167:main.c        ****                 // The 'base' turn amount is simply the robot's speed value multiplied by the lates
 168:main.c        ****                 // divided by the maximum (threshold) blackness value (determined for each sensor a
 169:main.c        ****                 // This is then further modified by the rate of change multiplied by a coefficient 
 170:main.c        ****                 // The more rapid the change of values (i.e. the difference between two measurement
 171:main.c        ****                 // becomes, thus leading to a steeper turn. 
 172:main.c        ****                 // Finally, a < 0 check was added to pre-empt any potential issues with large diff 
 173:main.c        ****                 turn = 0.5 * speed * (blackness2_left / black_threshold_l1);
 195              		.loc 1 173 0
 196 00bc 2046     		mov	r0, r4
 197 00be 4B49     		ldr	r1, .L22+4
 198 00c0 FFF7FEFF 		bl	__aeabi_fdiv
 199              	.LVL37:
 200 00c4 FFF7FEFF 		bl	__aeabi_f2d
 201              	.LVL38:
 202 00c8 0022     		movs	r2, #0
 203 00ca 494B     		ldr	r3, .L22+8
 204 00cc FFF7FEFF 		bl	__aeabi_dmul
 205              	.LVL39:
 206 00d0 FFF7FEFF 		bl	__aeabi_d2uiz
 207              	.LVL40:
 208 00d4 C7B2     		uxtb	r7, r0
 209              	.LVL41:
 174:main.c        ****                 turn -= ( 70000 * (diff_left / maxDiff_l1));
 210              		.loc 1 174 0
 211 00d6 2846     		mov	r0, r5
 212 00d8 4649     		ldr	r1, .L22+12
 213 00da FFF7FEFF 		bl	__aeabi_fdiv
 214              	.LVL42:
 215 00de 4649     		ldr	r1, .L22+16
 216 00e0 FFF7FEFF 		bl	__aeabi_fmul
 217              	.LVL43:
 218 00e4 0546     		mov	r5, r0
 219              	.LVL44:
ARM GAS  C:\Users\VILLEL~1\AppData\Local\Temp\cc6NuCZR.s 			page 8


 220 00e6 3846     		mov	r0, r7
 221 00e8 FFF7FEFF 		bl	__aeabi_i2f
 222              	.LVL45:
 223 00ec 2946     		mov	r1, r5
 224 00ee FFF7FEFF 		bl	__aeabi_fsub
 225              	.LVL46:
 226 00f2 FFF7FEFF 		bl	__aeabi_f2uiz
 227              	.LVL47:
 175:main.c        ****                 if (turn < 0)
 176:main.c        ****                 {
 177:main.c        ****                     turn = 0;
 178:main.c        ****                 }
 179:main.c        ****                 
 180:main.c        ****                 //printf("blackness1_left: %f \n", blackness1_left);
 181:main.c        ****                 //printf("blackness2_left: %f \n", blackness2_left);
 182:main.c        ****                 //printf("turn: %d \n", turn);
 183:main.c        ****                                 
 184:main.c        ****                 // Execute the turn.
 185:main.c        ****                 Right_turn(turn);
 228              		.loc 1 185 0
 229 00f6 C0B2     		uxtb	r0, r0
 230 00f8 FFF7FEFF 		bl	Right_turn
 231              	.LVL48:
 186:main.c        ****                              
 187:main.c        ****                 // Store the value of the second measurement to the variable for the first.
 188:main.c        ****                 // As the loop continues, blackness2's value is stored in blackness1 and then black
 189:main.c        ****                 blackness1_left = blackness2_left;
 190:main.c        ****                 
 191:main.c        ****                 CyDelay(1);
 232              		.loc 1 191 0
 233 00fc 0120     		movs	r0, #1
 234 00fe FFF7FEFF 		bl	CyDelay
 235              	.LVL49:
 192:main.c        ****                                
 193:main.c        ****                 //printf("%d\n", turn);
 194:main.c        ****                 
 195:main.c        ****             } while (dig.l1 == 1);
 236              		.loc 1 195 0
 237 0102 BDF80230 		ldrh	r3, [sp, #2]
 238 0106 012B     		cmp	r3, #1
 239 0108 B4D0     		beq	.L8
 240              	.LVL50:
 196:main.c        ****             // Return 'check' to its initial value, so that we can get an initial measurement 
 197:main.c        ****             // once the loop starts again (i.e. when the robot needs to turn again).
 198:main.c        ****             check = 0;
 199:main.c        ****             turn = speed;
 200:main.c        ****             // Since the turn has ended, continue forward with the designated speed.
 201:main.c        ****             Custom_forward(speed);
 241              		.loc 1 201 0
 242 010a F820     		movs	r0, #248
 243 010c FFF7FEFF 		bl	Custom_forward
 244              	.LVL51:
 245 0110 52E0     		b	.L9
 246              	.LVL52:
 247              	.L20:
 202:main.c        ****                     
 203:main.c        ****         } else if (dig.r1 == 1) {
ARM GAS  C:\Users\VILLEL~1\AppData\Local\Temp\cc6NuCZR.s 			page 9


 248              		.loc 1 203 0
 249 0112 BDF80430 		ldrh	r3, [sp, #4]
 250 0116 012B     		cmp	r3, #1
 251 0118 4ED1     		bne	.L9
 252 011a 0027     		movs	r7, #0
 253              	.LVL53:
 254              	.L12:
 204:main.c        ****             
 205:main.c        ****             // When the robot starts to veer off to the right, do a correction towards the left, un
 206:main.c        ****             do {
 207:main.c        ****                 
 208:main.c        ****                 // Obtain an initial value for blackness1_right, then close access to the if statem
 209:main.c        ****                 if (check == 0)
 255              		.loc 1 209 0
 256 011c 67B9     		cbnz	r7, .L17
 210:main.c        ****                 {
 211:main.c        ****                     reflectance_read(&ref);
 257              		.loc 1 211 0
 258 011e 02A8     		add	r0, sp, #8
 259 0120 FFF7FEFF 		bl	reflectance_read
 260              	.LVL54:
 212:main.c        ****                     blackness1_right = ref.r1;
 261              		.loc 1 212 0
 262 0124 BDF80C00 		ldrh	r0, [sp, #12]
 263 0128 FFF7FEFF 		bl	__aeabi_ui2f
 264              	.LVL55:
 265 012c 0546     		mov	r5, r0
 266              	.LVL56:
 213:main.c        ****                     CyDelay(1);
 267              		.loc 1 213 0
 268 012e 0120     		movs	r0, #1
 269              	.LVL57:
 270 0130 FFF7FEFF 		bl	CyDelay
 271              	.LVL58:
 214:main.c        ****                     check = 1;
 272              		.loc 1 214 0
 273 0134 0127     		movs	r7, #1
 274 0136 00E0     		b	.L10
 275              	.LVL59:
 276              	.L17:
 277 0138 4546     		mov	r5, r8
 278              	.LVL60:
 279              	.L10:
 215:main.c        ****                 }
 216:main.c        ****                 
 217:main.c        ****                 // Obtain a second value (1 millisecond later).
 218:main.c        ****                 reflectance_read(&ref);
 280              		.loc 1 218 0
 281 013a 02A8     		add	r0, sp, #8
 282 013c FFF7FEFF 		bl	reflectance_read
 283              	.LVL61:
 219:main.c        ****                 reflectance_digital(&dig); 
 284              		.loc 1 219 0
 285 0140 6846     		mov	r0, sp
 286 0142 FFF7FEFF 		bl	reflectance_digital
 287              	.LVL62:
 220:main.c        ****                 blackness2_right = ref.r1;
ARM GAS  C:\Users\VILLEL~1\AppData\Local\Temp\cc6NuCZR.s 			page 10


 288              		.loc 1 220 0
 289 0146 BDF80C00 		ldrh	r0, [sp, #12]
 290 014a FFF7FEFF 		bl	__aeabi_ui2f
 291              	.LVL63:
 292 014e 8046     		mov	r8, r0
 293              	.LVL64:
 221:main.c        ****                 
 222:main.c        ****                 // Calculate the difference between the two values.
 223:main.c        ****                 // (A check for negativity is needed due to the 'wobbly' behaviour of the reflectan
 224:main.c        ****                 diff_right = blackness1_right - blackness2_right;
 294              		.loc 1 224 0
 295 0150 2846     		mov	r0, r5
 296              	.LVL65:
 297 0152 4146     		mov	r1, r8
 298 0154 FFF7FEFF 		bl	__aeabi_fsub
 299              	.LVL66:
 300 0158 0546     		mov	r5, r0
 301              	.LVL67:
 225:main.c        ****                 if (diff_right < 0)
 302              		.loc 1 225 0
 303 015a 0021     		movs	r1, #0
 304 015c FFF7FEFF 		bl	__aeabi_fcmplt
 305              	.LVL68:
 306 0160 00B1     		cbz	r0, .L11
 226:main.c        ****                 {
 227:main.c        ****                     diff_right = 0;
 307              		.loc 1 227 0
 308 0162 0025     		movs	r5, #0
 309              	.LVL69:
 310              	.L11:
 228:main.c        ****                 }
 229:main.c        ****                 
 230:main.c        ****                 // Determine the correct turn amount (0 is max turn, 248 is no turn).
 231:main.c        ****                 
 232:main.c        ****                 // The 'base' turn amount is simply the robot's speed value multiplied by the lates
 233:main.c        ****                 // divided by the maximum (threshold) blackness value (determined for each sensor a
 234:main.c        ****                 // This is then further modified by the rate of change multiplied by a coefficient 
 235:main.c        ****                 // The more rapid the change of values (i.e. the difference between two measurement
 236:main.c        ****                 // becomes, thus leading to a steeper turn. 
 237:main.c        ****                 // Finally, a < 0 check was added to pre-empt any potential issues with large diff 
 238:main.c        ****                 turn = 0.5 * speed * (blackness2_right / black_threshold_r1);
 311              		.loc 1 238 0
 312 0164 4046     		mov	r0, r8
 313 0166 2549     		ldr	r1, .L22+20
 314 0168 FFF7FEFF 		bl	__aeabi_fdiv
 315              	.LVL70:
 316 016c FFF7FEFF 		bl	__aeabi_f2d
 317              	.LVL71:
 318 0170 0022     		movs	r2, #0
 319 0172 1F4B     		ldr	r3, .L22+8
 320 0174 FFF7FEFF 		bl	__aeabi_dmul
 321              	.LVL72:
 322 0178 FFF7FEFF 		bl	__aeabi_d2uiz
 323              	.LVL73:
 324 017c C6B2     		uxtb	r6, r0
 325              	.LVL74:
 239:main.c        ****                 turn -= ( 70000 * (diff_right / maxDiff_r1));
ARM GAS  C:\Users\VILLEL~1\AppData\Local\Temp\cc6NuCZR.s 			page 11


 326              		.loc 1 239 0
 327 017e 2846     		mov	r0, r5
 328 0180 1F49     		ldr	r1, .L22+24
 329 0182 FFF7FEFF 		bl	__aeabi_fdiv
 330              	.LVL75:
 331 0186 1C49     		ldr	r1, .L22+16
 332 0188 FFF7FEFF 		bl	__aeabi_fmul
 333              	.LVL76:
 334 018c 0546     		mov	r5, r0
 335              	.LVL77:
 336 018e 3046     		mov	r0, r6
 337 0190 FFF7FEFF 		bl	__aeabi_i2f
 338              	.LVL78:
 339 0194 2946     		mov	r1, r5
 340 0196 FFF7FEFF 		bl	__aeabi_fsub
 341              	.LVL79:
 342 019a FFF7FEFF 		bl	__aeabi_f2uiz
 343              	.LVL80:
 240:main.c        ****                 if (turn < 0)
 241:main.c        ****                 {
 242:main.c        ****                     turn = 0;
 243:main.c        ****                 }  
 244:main.c        ****                 
 245:main.c        ****                 //printf("%d \n", ref.r1);
 246:main.c        ****                 //printf("%d \n", turn);
 247:main.c        ****                 
 248:main.c        ****                 // Execute the turn.
 249:main.c        ****                 Left_turn(turn);
 344              		.loc 1 249 0
 345 019e C0B2     		uxtb	r0, r0
 346 01a0 FFF7FEFF 		bl	Left_turn
 347              	.LVL81:
 250:main.c        ****                 
 251:main.c        ****                 // Store the value of the second measurement to the variable for the first.
 252:main.c        ****                 // As the loop continues, blackness2's value is stored in blackness1 and then black
 253:main.c        ****                 blackness1_right = blackness2_right;
 254:main.c        ****                                 
 255:main.c        ****                 CyDelay(1);
 348              		.loc 1 255 0
 349 01a4 0120     		movs	r0, #1
 350 01a6 FFF7FEFF 		bl	CyDelay
 351              	.LVL82:
 256:main.c        ****                                
 257:main.c        ****                 //printf("%d\n", turn);
 258:main.c        ****                 
 259:main.c        ****             } while (dig.r1 == 1);
 352              		.loc 1 259 0
 353 01aa BDF80430 		ldrh	r3, [sp, #4]
 354 01ae 012B     		cmp	r3, #1
 355 01b0 B4D0     		beq	.L12
 356              	.LVL83:
 260:main.c        ****             // Return 'check' to its initial value, so that we can get an initial measurement 
 261:main.c        ****             // once the loop starts again (i.e. when the robot needs to turn again).
 262:main.c        ****             check = 0;
 263:main.c        ****             turn = speed;
 264:main.c        ****             // Since the turn has ended, continue forward with the designated speed.
 265:main.c        ****             Custom_forward(speed);
ARM GAS  C:\Users\VILLEL~1\AppData\Local\Temp\cc6NuCZR.s 			page 12


 357              		.loc 1 265 0
 358 01b2 F820     		movs	r0, #248
 359 01b4 FFF7FEFF 		bl	Custom_forward
 360              	.LVL84:
 361              	.L9:
 266:main.c        ****         } 
 267:main.c        ****                                     
 268:main.c        ****         // For measuring the battery voltage at regular intervals. 
 269:main.c        ****         // 80000 'cycles' should equal ~80 seconds, due to the delay that is used below (1).
 270:main.c        ****         // NOTE: the cycle limit will have to be adjusted each time we add delays to the while loop
 271:main.c        ****         // There must be a way around this, but for now we should keep this in mind and adjust it a
 272:main.c        ****         // NOTE2: If ALL delays are disabled, change the limit to 30 000 000 !
 273:main.c        ****         cycles++;
 362              		.loc 1 273 0
 363 01b8 09F10109 		add	r9, r9, #1
 364              	.LVL85:
 274:main.c        ****         if (cycles >= 80000)
 365              		.loc 1 274 0
 366 01bc 114B     		ldr	r3, .L22+28
 367 01be 9945     		cmp	r9, r3
 368 01c0 03DD     		ble	.L13
 275:main.c        ****         {
 276:main.c        ****             Measure_Voltage();
 369              		.loc 1 276 0
 370 01c2 FFF7FEFF 		bl	Measure_Voltage
 371              	.LVL86:
 277:main.c        ****             cycles = 0;
 372              		.loc 1 277 0
 373 01c6 4FF00009 		mov	r9, #0
 374              	.LVL87:
 375              	.L13:
 278:main.c        ****         }
 279:main.c        ****         
 280:main.c        ****         CyDelay(1);
 376              		.loc 1 280 0
 377 01ca 0120     		movs	r0, #1
 378 01cc FFF7FEFF 		bl	CyDelay
 379              	.LVL88:
 380              	.L5:
 129:main.c        ****         //printf("%d %d %d %d \r\n", ref.l3, ref.l1, ref.r1, ref.r3);       //print out each period
 381              		.loc 1 129 0
 382 01d0 02A8     		add	r0, sp, #8
 383 01d2 FFF7FEFF 		bl	reflectance_read
 384              	.LVL89:
 131:main.c        ****         //printf("%d %d %d %d \r\n", dig.l3, dig.l1, dig.r1, dig.r3);        //print out 0 or 1 acc
 385              		.loc 1 131 0
 386 01d6 6846     		mov	r0, sp
 387 01d8 FFF7FEFF 		bl	reflectance_digital
 388              	.LVL90:
 138:main.c        ****         { 
 389              		.loc 1 138 0
 390 01dc BDF80230 		ldrh	r3, [sp, #2]
 391 01e0 012B     		cmp	r3, #1
 392 01e2 96D1     		bne	.L20
 393 01e4 45E7     		b	.L19
 394              	.L23:
 395 01e6 00BF     		.align	2
ARM GAS  C:\Users\VILLEL~1\AppData\Local\Temp\cc6NuCZR.s 			page 13


 396              	.L22:
 397 01e8 00000000 		.word	sensor_isr_handler
 398 01ec 00B88846 		.word	1183365120
 399 01f0 00005F40 		.word	1079967744
 400 01f4 00204B46 		.word	1179328512
 401 01f8 00B88847 		.word	1200142336
 402 01fc 00E0AB46 		.word	1185669120
 403 0200 008C8846 		.word	1183353856
 404 0204 7F380100 		.word	79999
 405 0208 007EBB46 		.word	1186692608
 406              		.cfi_endproc
 407              	.LFE63:
 408              		.size	main, .-main
 409              		.section	.text._write,"ax",%progbits
 410              		.align	2
 411              		.global	_write
 412              		.thumb
 413              		.thumb_func
 414              		.type	_write, %function
 415              	_write:
 416              	.LFB64:
 281:main.c        ****         
 282:main.c        ****         /*
 283:main.c        ****         // If the button is pressed while movement routine is running, exit routine and stop the mo
 284:main.c        ****         button = SW1_Read();
 285:main.c        ****         if (button == 0) 
 286:main.c        ****         {
 287:main.c        ****             exitMain = 1;
 288:main.c        ****             CyDelay(10);
 289:main.c        ****         } */
 290:main.c        ****     }
 291:main.c        ****     
 292:main.c        ****     while(1) {}
 293:main.c        ****      
 294:main.c        ****  }   
 295:main.c        **** 
 296:main.c        **** // ================================================================================================
 297:main.c        **** // ================================================================================================
 298:main.c        **** 
 299:main.c        **** 
 300:main.c        **** //*/
 301:main.c        **** 
 302:main.c        **** /*//ultra sonic sensor//
 303:main.c        **** int main()
 304:main.c        **** {
 305:main.c        ****     CyGlobalIntEnable; 
 306:main.c        ****     UART_1_Start();
 307:main.c        ****     Ultra_Start();                          // Ultra Sonic Start function
 308:main.c        ****     while(1) {
 309:main.c        ****         //If you want to print out the value  
 310:main.c        ****         printf("distance = %5.0f\r\n", Ultra_GetDistance());
 311:main.c        ****         CyDelay(1000);
 312:main.c        ****     }
 313:main.c        **** }   
 314:main.c        **** //*/
 315:main.c        **** 
 316:main.c        **** 
ARM GAS  C:\Users\VILLEL~1\AppData\Local\Temp\cc6NuCZR.s 			page 14


 317:main.c        **** /*//nunchuk//
 318:main.c        **** int main()
 319:main.c        **** {
 320:main.c        ****     CyGlobalIntEnable; 
 321:main.c        ****     UART_1_Start();
 322:main.c        ****   
 323:main.c        ****     nunchuk_start();
 324:main.c        ****     nunchuk_init();
 325:main.c        ****     
 326:main.c        ****     for(;;)
 327:main.c        ****     {    
 328:main.c        ****         nunchuk_read();
 329:main.c        ****     }
 330:main.c        **** }   
 331:main.c        **** //*/
 332:main.c        **** 
 333:main.c        **** 
 334:main.c        **** /*//IR receiver//
 335:main.c        **** int main()
 336:main.c        **** {
 337:main.c        ****     CyGlobalIntEnable; 
 338:main.c        ****     UART_1_Start();
 339:main.c        ****     
 340:main.c        ****     unsigned int IR_val; 
 341:main.c        ****     
 342:main.c        ****     for(;;)
 343:main.c        ****     {
 344:main.c        ****        IR_val = get_IR();
 345:main.c        ****        printf("%x\r\n\n",IR_val);
 346:main.c        ****     }    
 347:main.c        ****  }   
 348:main.c        **** //*/
 349:main.c        **** 
 350:main.c        **** 
 351:main.c        **** /*//Ambient light sensor//
 352:main.c        **** int main()
 353:main.c        **** {
 354:main.c        ****     CyGlobalIntEnable; 
 355:main.c        ****     UART_1_Start();
 356:main.c        ****     
 357:main.c        ****     I2C_Start();
 358:main.c        ****     
 359:main.c        ****     I2C_write(0x29,0x80,0x00);          // set to power down
 360:main.c        ****     I2C_write(0x29,0x80,0x03);          // set to power on
 361:main.c        ****     
 362:main.c        ****     for(;;)
 363:main.c        ****     {    
 364:main.c        ****         uint8 Data0Low,Data0High,Data1Low,Data1High;
 365:main.c        ****         Data0Low = I2C_read(0x29,CH0_L);
 366:main.c        ****         Data0High = I2C_read(0x29,CH0_H);
 367:main.c        ****         Data1Low = I2C_read(0x29,CH1_L);
 368:main.c        ****         Data1High = I2C_read(0x29,CH1_H);
 369:main.c        ****         
 370:main.c        ****         uint8 CH0, CH1;
 371:main.c        ****         CH0 = convert_raw(Data0Low,Data0High);      // combine Data0
 372:main.c        ****         CH1 = convert_raw(Data1Low,Data1High);      // combine Data1
 373:main.c        **** 
ARM GAS  C:\Users\VILLEL~1\AppData\Local\Temp\cc6NuCZR.s 			page 15


 374:main.c        ****         double Ch0 = CH0;
 375:main.c        ****         double Ch1 = CH1;
 376:main.c        ****         
 377:main.c        ****         double data = 0;
 378:main.c        ****         data = getLux(Ch0,Ch1);
 379:main.c        ****         
 380:main.c        ****         // If you want to print out data
 381:main.c        ****         //printf("%lf\r\n",data);    
 382:main.c        ****     }    
 383:main.c        ****  }   
 384:main.c        **** //*/
 385:main.c        **** 
 386:main.c        **** 
 387:main.c        **** /*//accelerometer//
 388:main.c        **** int main()
 389:main.c        **** {
 390:main.c        ****     CyGlobalIntEnable; 
 391:main.c        ****     UART_1_Start();
 392:main.c        ****   
 393:main.c        ****     I2C_Start();
 394:main.c        ****   
 395:main.c        ****     uint8 X_L_A, X_H_A, Y_L_A, Y_H_A, Z_L_A, Z_H_A;
 396:main.c        ****     int16 X_AXIS_A, Y_AXIS_A, Z_AXIS_A;
 397:main.c        ****     
 398:main.c        ****     I2C_write(ACCEL_MAG_ADDR, ACCEL_CTRL1_REG, 0x37);           // set accelerometer & magnetometer
 399:main.c        ****     I2C_write(ACCEL_MAG_ADDR, ACCEL_CTRL7_REG, 0x22);
 400:main.c        ****     
 401:main.c        ****     
 402:main.c        ****     for(;;)
 403:main.c        ****     {
 404:main.c        ****         //print out accelerometer output
 405:main.c        ****         X_L_A = I2C_read(ACCEL_MAG_ADDR, OUT_X_L_A);
 406:main.c        ****         X_H_A = I2C_read(ACCEL_MAG_ADDR, OUT_X_H_A);
 407:main.c        ****         X_AXIS_A = convert_raw(X_L_A, X_H_A);
 408:main.c        ****         
 409:main.c        ****         Y_L_A = I2C_read(ACCEL_MAG_ADDR, OUT_Y_L_A);
 410:main.c        ****         Y_H_A = I2C_read(ACCEL_MAG_ADDR, OUT_Y_H_A);
 411:main.c        ****         Y_AXIS_A = convert_raw(Y_L_A, Y_H_A);
 412:main.c        ****         
 413:main.c        ****         Z_L_A = I2C_read(ACCEL_MAG_ADDR, OUT_Z_L_A);
 414:main.c        ****         Z_H_A = I2C_read(ACCEL_MAG_ADDR, OUT_Z_H_A);
 415:main.c        ****         Z_AXIS_A = convert_raw(Z_L_A, Z_H_A);
 416:main.c        ****         
 417:main.c        ****         printf("ACCEL: %d %d %d %d %d %d \r\n", X_L_A, X_H_A, Y_L_A, Y_H_A, Z_L_A, Z_H_A);
 418:main.c        ****         value_convert_accel(X_AXIS_A, Y_AXIS_A, Z_AXIS_A);
 419:main.c        ****         printf("\n");
 420:main.c        ****         
 421:main.c        ****         CyDelay(50);
 422:main.c        ****     }
 423:main.c        **** }   
 424:main.c        **** //*/
 425:main.c        **** 
 426:main.c        **** 
 427:main.c        **** /*//reflectance//
 428:main.c        **** int main()
 429:main.c        **** {
 430:main.c        ****     struct sensors_ ref;
ARM GAS  C:\Users\VILLEL~1\AppData\Local\Temp\cc6NuCZR.s 			page 16


 431:main.c        ****     struct sensors_ dig;
 432:main.c        ****     CyGlobalIntEnable; 
 433:main.c        ****     UART_1_Start();
 434:main.c        ****   
 435:main.c        ****     sensor_isr_StartEx(sensor_isr_handler);
 436:main.c        ****     
 437:main.c        ****     reflectance_start();
 438:main.c        **** 
 439:main.c        ****     IR_led_Write(1);
 440:main.c        ****     for(;;)
 441:main.c        ****     {
 442:main.c        ****         reflectance_read(&ref); // raw sensor value; 0 - 22 000
 443:main.c        ****         printf("%d %d %d %d \r\n", ref.l3, ref.l1, ref.r1, ref.r3);       //print out each period o
 444:main.c        ****         reflectance_digital(&dig);      //print out 0 or 1 according to results of reflectance peri
 445:main.c        ****         printf("%d %d %d %d \r\n", dig.l3, dig.l1, dig.r1, dig.r3);        //print out 0 or 1 accor
 446:main.c        ****         
 447:main.c        ****         CyDelay(500);
 448:main.c        ****     }
 449:main.c        **** }   
 450:main.c        **** //*/
 451:main.c        **** 
 452:main.c        ****  /* //motor//
 453:main.c        **** int main()
 454:main.c        **** {
 455:main.c        ****     CyGlobalIntEnable; 
 456:main.c        ****     UART_1_Start();
 457:main.c        **** 
 458:main.c        ****     motor_start();              // motor start
 459:main.c        **** 
 460:main.c        ****     motor_forward(100,2000);     // moving forward
 461:main.c        ****     motor_turn(200,50,2000);     // turn
 462:main.c        ****     motor_turn(50,200,2000);     // turn
 463:main.c        ****     motor_backward(100,2000);    // movinb backward
 464:main.c        ****        
 465:main.c        ****     motor_stop();               // motor stop
 466:main.c        ****     
 467:main.c        ****     for(;;)
 468:main.c        ****     {
 469:main.c        **** 
 470:main.c        ****     }
 471:main.c        **** }
 472:main.c        **** //*/
 473:main.c        ****     
 474:main.c        **** 
 475:main.c        **** /*//gyroscope//
 476:main.c        **** int main()
 477:main.c        **** {
 478:main.c        ****     CyGlobalIntEnable; 
 479:main.c        ****     UART_1_Start();
 480:main.c        ****   
 481:main.c        ****     I2C_Start();
 482:main.c        ****   
 483:main.c        ****     uint8 X_L_G, X_H_G, Y_L_G, Y_H_G, Z_L_G, Z_H_G;
 484:main.c        ****     int16 X_AXIS_G, Y_AXIS_G, Z_AXIS_G;
 485:main.c        ****     
 486:main.c        ****     I2C_write(GYRO_ADDR, GYRO_CTRL1_REG, 0x0F);             // set gyroscope into active mode
 487:main.c        ****     I2C_write(GYRO_ADDR, GYRO_CTRL4_REG, 0x30);             // set full scale selection to 2000dps 
ARM GAS  C:\Users\VILLEL~1\AppData\Local\Temp\cc6NuCZR.s 			page 17


 488:main.c        ****     
 489:main.c        ****     for(;;)
 490:main.c        ****     {
 491:main.c        ****         //print out gyroscope output
 492:main.c        ****         X_L_G = I2C_read(GYRO_ADDR, OUT_X_AXIS_L);
 493:main.c        ****         X_H_G = I2C_read(GYRO_ADDR, OUT_X_AXIS_H);
 494:main.c        ****         X_AXIS_G = convert_raw(X_H_G, X_L_G);
 495:main.c        ****         
 496:main.c        ****         
 497:main.c        ****         Y_L_G = I2C_read(GYRO_ADDR, OUT_Y_AXIS_L);
 498:main.c        ****         Y_H_G = I2C_read(GYRO_ADDR, OUT_Y_AXIS_H);
 499:main.c        ****         Y_AXIS_G = convert_raw(Y_H_G, Y_L_G);
 500:main.c        ****         
 501:main.c        ****         
 502:main.c        ****         Z_L_G = I2C_read(GYRO_ADDR, OUT_Z_AXIS_L);
 503:main.c        ****         Z_H_G = I2C_read(GYRO_ADDR, OUT_Z_AXIS_H);
 504:main.c        ****         Z_AXIS_G = convert_raw(Z_H_G, Z_L_G);
 505:main.c        ****      
 506:main.c        ****         // If you want to print value
 507:main.c        ****         printf("%d %d %d \r\n", X_AXIS_G, Y_AXIS_G, Z_AXIS_G);
 508:main.c        ****         CyDelay(50);
 509:main.c        ****     }
 510:main.c        **** }   
 511:main.c        **** //*/
 512:main.c        **** 
 513:main.c        **** 
 514:main.c        **** /*//magnetometer//
 515:main.c        **** int main()
 516:main.c        **** {
 517:main.c        ****     CyGlobalIntEnable; 
 518:main.c        ****     UART_1_Start();
 519:main.c        ****   
 520:main.c        ****     I2C_Start();
 521:main.c        ****    
 522:main.c        ****     uint8 X_L_M, X_H_M, Y_L_M, Y_H_M, Z_L_M, Z_H_M;
 523:main.c        ****     int16 X_AXIS, Y_AXIS, Z_AXIS;
 524:main.c        ****     
 525:main.c        ****     I2C_write(GYRO_ADDR, GYRO_CTRL1_REG, 0x0F);             // set gyroscope into active mode
 526:main.c        ****     I2C_write(GYRO_ADDR, GYRO_CTRL4_REG, 0x30);             // set full scale selection to 2000dps
 527:main.c        ****     I2C_write(ACCEL_MAG_ADDR, ACCEL_CTRL1_REG, 0x37);           // set accelerometer & magnetometer
 528:main.c        ****     I2C_write(ACCEL_MAG_ADDR, ACCEL_CTRL7_REG, 0x22);
 529:main.c        ****     
 530:main.c        ****     
 531:main.c        ****     for(;;)
 532:main.c        ****     {
 533:main.c        ****         X_L_M = I2C_read(ACCEL_MAG_ADDR, OUT_X_L_M);
 534:main.c        ****         X_H_M = I2C_read(ACCEL_MAG_ADDR, OUT_X_H_M);
 535:main.c        ****         X_AXIS = convert_raw(X_L_M, X_H_M);
 536:main.c        ****         
 537:main.c        ****         Y_L_M = I2C_read(ACCEL_MAG_ADDR, OUT_Y_L_M);
 538:main.c        ****         Y_H_M = I2C_read(ACCEL_MAG_ADDR, OUT_Y_H_M);
 539:main.c        ****         Y_AXIS = convert_raw(Y_L_M, Y_H_M);
 540:main.c        ****         
 541:main.c        ****         Z_L_M = I2C_read(ACCEL_MAG_ADDR, OUT_Z_L_M);
 542:main.c        ****         Z_H_M = I2C_read(ACCEL_MAG_ADDR, OUT_Z_H_M);
 543:main.c        ****         Z_AXIS = convert_raw(Z_L_M, Z_H_M);
 544:main.c        ****         
ARM GAS  C:\Users\VILLEL~1\AppData\Local\Temp\cc6NuCZR.s 			page 18


 545:main.c        ****         heading(X_AXIS, Y_AXIS);
 546:main.c        ****         printf("MAGNET: %d %d %d %d %d %d \r\n", X_L_M, X_H_M, Y_L_M, Y_H_M, Z_L_M, Z_H_M);
 547:main.c        ****         printf("%d %d %d \r\n", X_AXIS,Y_AXIS, Z_AXIS);
 548:main.c        ****         CyDelay(50);      
 549:main.c        ****     }
 550:main.c        **** }   
 551:main.c        **** //*/
 552:main.c        **** 
 553:main.c        **** 
 554:main.c        **** /*
 555:main.c        **** 
 556:main.c        **** 
 557:main.c        ****     <p>
 558:main.c        ****     <B>Sensors</B><br>
 559:main.c        ****     &nbsp;Included: <br>
 560:main.c        ****         &nbsp;&nbsp;&nbsp;&nbsp;LSM303D: Accelerometer & Magnetometer<br>
 561:main.c        ****         &nbsp;&nbsp;&nbsp;&nbsp;L3GD20H: Gyroscope<br>
 562:main.c        ****         &nbsp;&nbsp;&nbsp;&nbsp;Reflectance sensor<br>
 563:main.c        ****         &nbsp;&nbsp;&nbsp;&nbsp;Motors
 564:main.c        ****     &nbsp;Wii nunchuck<br>
 565:main.c        ****     &nbsp;TSOP-2236: IR Receiver<br>
 566:main.c        ****     &nbsp;HC-SR04: Ultrasonic sensor<br>
 567:main.c        ****     &nbsp;APDS-9301: Ambient light sensor<br>
 568:main.c        ****     &nbsp;IR LED <br><br><br>
 569:main.c        ****     </p>
 570:main.c        ****     
 571:main.c        ****     <p>
 572:main.c        ****     <B>Communication</B><br>
 573:main.c        ****     I2C, UART, Serial<br>
 574:main.c        ****     </p>
 575:main.c        **** 
 576:main.c        **** */
 577:main.c        **** 
 578:main.c        **** 
 579:main.c        **** #if 0
 580:main.c        **** int rread(void)
 581:main.c        **** {
 582:main.c        ****     SC0_SetDriveMode(PIN_DM_STRONG);
 583:main.c        ****     SC0_Write(1);
 584:main.c        ****     CyDelayUs(10);
 585:main.c        ****     SC0_SetDriveMode(PIN_DM_DIG_HIZ);
 586:main.c        ****     Timer_1_Start();
 587:main.c        ****     uint16_t start = Timer_1_ReadCounter();
 588:main.c        ****     uint16_t end = 0;
 589:main.c        ****     while(!(Timer_1_ReadStatusRegister() & Timer_1_STATUS_TC)) {
 590:main.c        ****         if(SC0_Read() == 0 && end == 0) {
 591:main.c        ****             end = Timer_1_ReadCounter();
 592:main.c        ****         }
 593:main.c        ****     }
 594:main.c        ****     Timer_1_Stop();
 595:main.c        ****     
 596:main.c        ****     return (start - end);
 597:main.c        **** }
 598:main.c        **** #endif
 599:main.c        **** 
 600:main.c        **** /* Don't remove the functions below */
 601:main.c        **** int _write(int file, char *ptr, int len)
ARM GAS  C:\Users\VILLEL~1\AppData\Local\Temp\cc6NuCZR.s 			page 19


 602:main.c        **** {
 417              		.loc 1 602 0
 418              		.cfi_startproc
 419              		@ args = 0, pretend = 0, frame = 0
 420              		@ frame_needed = 0, uses_anonymous_args = 0
 421              	.LVL91:
 422 0000 F8B5     		push	{r3, r4, r5, r6, r7, lr}
 423              		.cfi_def_cfa_offset 24
 424              		.cfi_offset 3, -24
 425              		.cfi_offset 4, -20
 426              		.cfi_offset 5, -16
 427              		.cfi_offset 6, -12
 428              		.cfi_offset 7, -8
 429              		.cfi_offset 14, -4
 430 0002 0C46     		mov	r4, r1
 431 0004 1746     		mov	r7, r2
 432              	.LVL92:
 603:main.c        ****     (void)file; /* Parameter is not used, suppress unused argument warning */
 604:main.c        **** 	int n;
 605:main.c        **** 	for(n = 0; n < len; n++) {
 433              		.loc 1 605 0
 434 0006 0025     		movs	r5, #0
 435 0008 0BE0     		b	.L25
 436              	.LVL93:
 437              	.L27:
 606:main.c        ****         if(*ptr == '\n') UART_1_PutChar('\r');
 438              		.loc 1 606 0
 439 000a 2378     		ldrb	r3, [r4]	@ zero_extendqisi2
 440 000c 0A2B     		cmp	r3, #10
 441 000e 02D1     		bne	.L26
 442              		.loc 1 606 0 is_stmt 0 discriminator 1
 443 0010 0D20     		movs	r0, #13
 444 0012 FFF7FEFF 		bl	UART_1_PutChar
 445              	.LVL94:
 446              	.L26:
 607:main.c        **** 		UART_1_PutChar(*ptr++);
 447              		.loc 1 607 0 is_stmt 1 discriminator 2
 448 0016 661C     		adds	r6, r4, #1
 449              	.LVL95:
 450 0018 2078     		ldrb	r0, [r4]	@ zero_extendqisi2
 451 001a FFF7FEFF 		bl	UART_1_PutChar
 452              	.LVL96:
 605:main.c        ****         if(*ptr == '\n') UART_1_PutChar('\r');
 453              		.loc 1 605 0 discriminator 2
 454 001e 0135     		adds	r5, r5, #1
 455              	.LVL97:
 456              		.loc 1 607 0 discriminator 2
 457 0020 3446     		mov	r4, r6
 458              	.LVL98:
 459              	.L25:
 605:main.c        ****         if(*ptr == '\n') UART_1_PutChar('\r');
 460              		.loc 1 605 0 discriminator 1
 461 0022 BD42     		cmp	r5, r7
 462 0024 F1DB     		blt	.L27
 608:main.c        **** 	}
 609:main.c        **** 	return len;
 610:main.c        **** }
ARM GAS  C:\Users\VILLEL~1\AppData\Local\Temp\cc6NuCZR.s 			page 20


 463              		.loc 1 610 0
 464 0026 3846     		mov	r0, r7
 465 0028 F8BD     		pop	{r3, r4, r5, r6, r7, pc}
 466              		.cfi_endproc
 467              	.LFE64:
 468              		.size	_write, .-_write
 469 002a 00BF     		.section	.text._read,"ax",%progbits
 470              		.align	2
 471              		.global	_read
 472              		.thumb
 473              		.thumb_func
 474              		.type	_read, %function
 475              	_read:
 476              	.LFB65:
 611:main.c        **** 
 612:main.c        **** int _read (int file, char *ptr, int count)
 613:main.c        **** {
 477              		.loc 1 613 0
 478              		.cfi_startproc
 479              		@ args = 0, pretend = 0, frame = 0
 480              		@ frame_needed = 0, uses_anonymous_args = 0
 481              	.LVL99:
 482 0000 F8B5     		push	{r3, r4, r5, r6, r7, lr}
 483              		.cfi_def_cfa_offset 24
 484              		.cfi_offset 3, -24
 485              		.cfi_offset 4, -20
 486              		.cfi_offset 5, -16
 487              		.cfi_offset 6, -12
 488              		.cfi_offset 7, -8
 489              		.cfi_offset 14, -4
 490 0002 0F46     		mov	r7, r1
 491 0004 1446     		mov	r4, r2
 492              	.LVL100:
 614:main.c        ****     int chs = 0;
 493              		.loc 1 614 0
 494 0006 0026     		movs	r6, #0
 615:main.c        ****     char ch;
 616:main.c        ****  
 617:main.c        ****     (void)file; /* Parameter is not used, suppress unused argument warning */
 618:main.c        ****     while(count > 0) {
 495              		.loc 1 618 0
 496 0008 12E0     		b	.L31
 497              	.LVL101:
 498              	.L34:
 619:main.c        ****         ch = UART_1_GetChar();
 499              		.loc 1 619 0
 500 000a FFF7FEFF 		bl	UART_1_GetChar
 501              	.LVL102:
 620:main.c        ****         if(ch != 0) {
 502              		.loc 1 620 0
 503 000e 0546     		mov	r5, r0
 504 0010 70B1     		cbz	r0, .L31
 621:main.c        ****             UART_1_PutChar(ch);
 505              		.loc 1 621 0
 506 0012 FFF7FEFF 		bl	UART_1_PutChar
 507              	.LVL103:
 622:main.c        ****             chs++;
ARM GAS  C:\Users\VILLEL~1\AppData\Local\Temp\cc6NuCZR.s 			page 21


 508              		.loc 1 622 0
 509 0016 0136     		adds	r6, r6, #1
 510              	.LVL104:
 623:main.c        ****             if(ch == '\r') {
 511              		.loc 1 623 0
 512 0018 0D2D     		cmp	r5, #13
 513 001a 03D1     		bne	.L32
 514              	.LVL105:
 624:main.c        ****                 ch = '\n';
 625:main.c        ****                 UART_1_PutChar(ch);
 515              		.loc 1 625 0
 516 001c 0A20     		movs	r0, #10
 517 001e FFF7FEFF 		bl	UART_1_PutChar
 518              	.LVL106:
 624:main.c        ****                 ch = '\n';
 519              		.loc 1 624 0
 520 0022 0A25     		movs	r5, #10
 521              	.LVL107:
 522              	.L32:
 626:main.c        ****             }
 627:main.c        ****             *ptr++ = ch;
 523              		.loc 1 627 0
 524 0024 7B1C     		adds	r3, r7, #1
 525              	.LVL108:
 526 0026 3D70     		strb	r5, [r7]
 628:main.c        ****             count--;
 527              		.loc 1 628 0
 528 0028 013C     		subs	r4, r4, #1
 529              	.LVL109:
 629:main.c        ****             if(ch == '\n') break;
 530              		.loc 1 629 0
 531 002a 0A2D     		cmp	r5, #10
 532 002c 02D0     		beq	.L33
 627:main.c        ****             count--;
 533              		.loc 1 627 0
 534 002e 1F46     		mov	r7, r3
 535              	.LVL110:
 536              	.L31:
 618:main.c        ****         ch = UART_1_GetChar();
 537              		.loc 1 618 0
 538 0030 002C     		cmp	r4, #0
 539 0032 EADC     		bgt	.L34
 540              	.LVL111:
 541              	.L33:
 630:main.c        ****         }
 631:main.c        ****     }
 632:main.c        ****     return chs;
 633:main.c        **** }
 542              		.loc 1 633 0
 543 0034 3046     		mov	r0, r6
 544 0036 F8BD     		pop	{r3, r4, r5, r6, r7, pc}
 545              		.cfi_endproc
 546              	.LFE65:
 547              		.size	_read, .-_read
 548              		.text
 549              	.Letext0:
 550              		.file 2 "c:\\program files (x86)\\cypress\\psoc creator\\4.0\\psoc creator\\import\\gnu\\arm\\4.9.
ARM GAS  C:\Users\VILLEL~1\AppData\Local\Temp\cc6NuCZR.s 			page 22


 551              		.file 3 "c:\\program files (x86)\\cypress\\psoc creator\\4.0\\psoc creator\\import\\gnu\\arm\\4.9.
 552              		.file 4 "Generated_Source\\PSoC5/cytypes.h"
 553              		.file 5 ".\\ZumoLibrary/Reflectance.h"
 554              		.file 6 "Generated_Source\\PSoC5/UART_1.h"
 555              		.file 7 "Generated_Source\\PSoC5/ADC_Battery.h"
 556              		.file 8 "Generated_Source\\PSoC5/sensor_isr.h"
 557              		.file 9 "Generated_Source\\PSoC5/IR_led.h"
 558              		.file 10 "Generated_Source\\PSoC5/BatteryLed.h"
 559              		.file 11 "Generated_Source\\PSoC5/CyLib.h"
 560              		.file 12 "Generated_Source\\PSoC5/SW1.h"
 561              		.file 13 "Generated_Source\\PSoC5/core_cm3.h"