ARM GAS  C:\Users\KOOMOO~1\AppData\Local\Temp\ccPs7lGc.s 			page 1


   1              		.syntax unified
   2              		.cpu cortex-m3
   3              		.fpu softvfp
   4              		.eabi_attribute 20, 1
   5              		.eabi_attribute 21, 1
   6              		.eabi_attribute 23, 3
   7              		.eabi_attribute 24, 1
   8              		.eabi_attribute 25, 1
   9              		.eabi_attribute 26, 1
  10              		.eabi_attribute 30, 1
  11              		.eabi_attribute 34, 1
  12              		.eabi_attribute 18, 4
  13              		.thumb
  14              		.file	"Voltage_Monitoring.c"
  15              		.text
  16              	.Ltext0:
  17              		.cfi_sections	.debug_frame
  18              		.global	__aeabi_i2d
  19              		.global	__aeabi_ddiv
  20              		.global	__aeabi_dmul
  21              		.global	__aeabi_d2f
  22              		.section	.text.ADC_result_to_volts,"ax",%progbits
  23              		.align	2
  24              		.global	ADC_result_to_volts
  25              		.thumb
  26              		.thumb_func
  27              		.type	ADC_result_to_volts, %function
  28              	ADC_result_to_volts:
  29              	.LFB63:
  30              		.file 1 "Voltage_Monitoring.c"
   1:Voltage_Monitoring.c **** 
   2:Voltage_Monitoring.c **** /**
   3:Voltage_Monitoring.c ****  * @file    Voltage_Monitoring.c
   4:Voltage_Monitoring.c ****  * @brief   Custom file for measuring battery voltage (+ playing some warning sounds & flashing lig
   5:Voltage_Monitoring.c ****  * @details  <br><br>
   6:Voltage_Monitoring.c ****     <p>
   7:Voltage_Monitoring.c ****     <B>General</B><br>
   8:Voltage_Monitoring.c ****     The method Measure_Voltage() was used during development to measure the robot's battery voltage
   9:Voltage_Monitoring.c ****     (or thereabouts) while the robot was on. The logic was deleted from main.c in order not to inte
  10:Voltage_Monitoring.c ****     included here for review.<br>
  11:Voltage_Monitoring.c ****     <br><br>
  12:Voltage_Monitoring.c ****     </p>
  13:Voltage_Monitoring.c **** */
  14:Voltage_Monitoring.c **** 
  15:Voltage_Monitoring.c **** #include <project.h>
  16:Voltage_Monitoring.c **** #include <stdio.h>
  17:Voltage_Monitoring.c **** #include "Motor.h"
  18:Voltage_Monitoring.c **** #include "Beep.h"
  19:Voltage_Monitoring.c **** 
  20:Voltage_Monitoring.c **** float ADC_result_to_volts(int16 adcresult);
  21:Voltage_Monitoring.c **** void Beep(uint32 length, uint8 pitch);
  22:Voltage_Monitoring.c **** void BatteryLed_Write(uint8 value);
  23:Voltage_Monitoring.c **** uint8 BatteryLed_Read();
  24:Voltage_Monitoring.c **** void motor_stop();
  25:Voltage_Monitoring.c **** void Measure_Voltage();
  26:Voltage_Monitoring.c **** 
  27:Voltage_Monitoring.c **** // Subroutine for custom unit conversion (used below in Measure_Voltage()).
ARM GAS  C:\Users\KOOMOO~1\AppData\Local\Temp\ccPs7lGc.s 			page 2


  28:Voltage_Monitoring.c **** float ADC_result_to_volts(int16 adcresult)
  29:Voltage_Monitoring.c **** {
  31              		.loc 1 29 0
  32              		.cfi_startproc
  33              		@ args = 0, pretend = 0, frame = 0
  34              		@ frame_needed = 0, uses_anonymous_args = 0
  35              	.LVL0:
  36 0000 08B5     		push	{r3, lr}
  37              		.cfi_def_cfa_offset 8
  38              		.cfi_offset 3, -8
  39              		.cfi_offset 14, -4
  30:Voltage_Monitoring.c ****     float volts;
  31:Voltage_Monitoring.c ****     
  32:Voltage_Monitoring.c ****     // returns the actual battery voltage (4.1 - 5.6 V)
  33:Voltage_Monitoring.c ****     volts = (adcresult / 4095.0) * (1.5 * 5.0);
  40              		.loc 1 33 0
  41 0002 FFF7FEFF 		bl	__aeabi_i2d
  42              	.LVL1:
  43 0006 06A3     		adr	r3, .L3
  44 0008 D3E90023 		ldrd	r2, [r3]
  45 000c FFF7FEFF 		bl	__aeabi_ddiv
  46              	.LVL2:
  47 0010 0022     		movs	r2, #0
  48 0012 054B     		ldr	r3, .L3+8
  49 0014 FFF7FEFF 		bl	__aeabi_dmul
  50              	.LVL3:
  51 0018 FFF7FEFF 		bl	__aeabi_d2f
  52              	.LVL4:
  34:Voltage_Monitoring.c ****     
  35:Voltage_Monitoring.c ****     return volts;
  36:Voltage_Monitoring.c ****     
  37:Voltage_Monitoring.c **** }
  53              		.loc 1 37 0
  54 001c 08BD     		pop	{r3, pc}
  55              	.L4:
  56 001e 00BF     		.align	3
  57              	.L3:
  58 0020 00000000 		.word	0
  59 0024 00FEAF40 		.word	1085275648
  60 0028 00001E40 		.word	1075707904
  61              		.cfi_endproc
  62              	.LFE63:
  63              		.size	ADC_result_to_volts, .-ADC_result_to_volts
  64              		.global	__aeabi_fcmpgt
  65              		.global	__aeabi_fcmpge
  66              		.global	__aeabi_fcmplt
  67              		.global	__aeabi_f2d
  68              		.global	__aeabi_dcmpge
  69              		.global	__aeabi_dcmplt
  70 002c AFF30080 		.section	.text.Measure_Voltage,"ax",%progbits
  71              		.align	2
  72              		.global	Measure_Voltage
  73              		.thumb
  74              		.thumb_func
  75              		.type	Measure_Voltage, %function
  76              	Measure_Voltage:
  77              	.LFB64:
ARM GAS  C:\Users\KOOMOO~1\AppData\Local\Temp\ccPs7lGc.s 			page 3


  38:Voltage_Monitoring.c **** 
  39:Voltage_Monitoring.c **** // For measuring the voltage of the batteries at regular intervals. (Used in main.c.)
  40:Voltage_Monitoring.c **** void Measure_Voltage()
  41:Voltage_Monitoring.c **** {
  78              		.loc 1 41 0
  79              		.cfi_startproc
  80              		@ args = 0, pretend = 0, frame = 0
  81              		@ frame_needed = 0, uses_anonymous_args = 0
  82 0000 F8B5     		push	{r3, r4, r5, r6, r7, lr}
  83              		.cfi_def_cfa_offset 24
  84              		.cfi_offset 3, -24
  85              		.cfi_offset 4, -20
  86              		.cfi_offset 5, -16
  87              		.cfi_offset 6, -12
  88              		.cfi_offset 7, -8
  89              		.cfi_offset 14, -4
  90              	.LVL5:
  42:Voltage_Monitoring.c ****     int16 adcresult = 0;
  43:Voltage_Monitoring.c ****     float volts = 0.0;
  44:Voltage_Monitoring.c ****     
  45:Voltage_Monitoring.c ****     int i;
  46:Voltage_Monitoring.c ****     
  47:Voltage_Monitoring.c ****     ADC_Battery_StartConvert();
  91              		.loc 1 47 0
  92 0002 FFF7FEFF 		bl	ADC_Battery_StartConvert
  93              	.LVL6:
  48:Voltage_Monitoring.c ****     if(ADC_Battery_IsEndConversion(ADC_Battery_WAIT_FOR_RESULT)) 
  94              		.loc 1 48 0
  95 0006 0020     		movs	r0, #0
  96 0008 FFF7FEFF 		bl	ADC_Battery_IsEndConversion
  97              	.LVL7:
  98 000c 0028     		cmp	r0, #0
  99 000e 00F0A180 		beq	.L5
  49:Voltage_Monitoring.c ****     {   // wait for get ADC converted value
  50:Voltage_Monitoring.c ****         adcresult = ADC_Battery_GetResult16();
 100              		.loc 1 50 0
 101 0012 FFF7FEFF 		bl	ADC_Battery_GetResult16
 102              	.LVL8:
 103 0016 0746     		mov	r7, r0
 104              	.LVL9:
  51:Voltage_Monitoring.c ****         volts = ADC_result_to_volts(adcresult); // convert value to volts
 105              		.loc 1 51 0
 106 0018 FFF7FEFF 		bl	ADC_result_to_volts
 107              	.LVL10:
 108 001c 0646     		mov	r6, r0
 109              	.LVL11:
  52:Voltage_Monitoring.c ****         
  53:Voltage_Monitoring.c ****         // Different types of beep sounds for different voltage levels. If the charge is over 5.0 V
  54:Voltage_Monitoring.c ****         // three long and low-sounding beeps; from 5.0 to 4.5 V, six medium-length, medium-pitch be
  55:Voltage_Monitoring.c ****         // 4.1 V, 9 loud and sharp beeps; and finally if the voltage reaches 4.1 V, there will be a
  56:Voltage_Monitoring.c ****         // flurry of extremely short and sharp beeps.
  57:Voltage_Monitoring.c ****         // EDIT: Added flashing light effects to go with the beeps :)
  58:Voltage_Monitoring.c ****         if (volts > 0.5) // lenient 'null check' is needed to prevent alarms when the robot is off 
 110              		.loc 1 58 0
 111 001e 4FF07C51 		mov	r1, #1056964608
 112 0022 FFF7FEFF 		bl	__aeabi_fcmpgt
 113              	.LVL12:
ARM GAS  C:\Users\KOOMOO~1\AppData\Local\Temp\ccPs7lGc.s 			page 4


 114 0026 0028     		cmp	r0, #0
 115 0028 00F09080 		beq	.L7
  59:Voltage_Monitoring.c ****                          // as startup occasionally, so the problem was not fully fixed with this c
  60:Voltage_Monitoring.c ****         {
  61:Voltage_Monitoring.c ****         
  62:Voltage_Monitoring.c ****             if (volts >= 5.0)
 116              		.loc 1 62 0
 117 002c 3046     		mov	r0, r6
 118 002e 4C49     		ldr	r1, .L32+8
 119 0030 FFF7FEFF 		bl	__aeabi_fcmpge
 120              	.LVL13:
 121 0034 90B9     		cbnz	r0, .L23
 122 0036 15E0     		b	.L30
 123              	.LVL14:
 124              	.L11:
  63:Voltage_Monitoring.c ****             { for (i = 0; i < 3; i++) 
  64:Voltage_Monitoring.c ****                 {
  65:Voltage_Monitoring.c ****                     Beep(80, 60);
 125              		.loc 1 65 0 discriminator 3
 126 0038 5020     		movs	r0, #80
 127 003a 3C21     		movs	r1, #60
 128 003c FFF7FEFF 		bl	Beep
 129              	.LVL15:
  66:Voltage_Monitoring.c ****                     BatteryLed_Write(1);
 130              		.loc 1 66 0 discriminator 3
 131 0040 0120     		movs	r0, #1
 132 0042 FFF7FEFF 		bl	BatteryLed_Write
 133              	.LVL16:
  67:Voltage_Monitoring.c ****                     BatteryLed_Read();
 134              		.loc 1 67 0 discriminator 3
 135 0046 FFF7FEFF 		bl	BatteryLed_Read
 136              	.LVL17:
  68:Voltage_Monitoring.c ****                     CyDelay(600);
 137              		.loc 1 68 0 discriminator 3
 138 004a 4FF41670 		mov	r0, #600
 139 004e FFF7FEFF 		bl	CyDelay
 140              	.LVL18:
  69:Voltage_Monitoring.c ****                     BatteryLed_Write(0);
 141              		.loc 1 69 0 discriminator 3
 142 0052 0020     		movs	r0, #0
 143 0054 FFF7FEFF 		bl	BatteryLed_Write
 144              	.LVL19:
  63:Voltage_Monitoring.c ****                 {
 145              		.loc 1 63 0 discriminator 3
 146 0058 0134     		adds	r4, r4, #1
 147              	.LVL20:
 148 005a 00E0     		b	.L9
 149              	.LVL21:
 150              	.L23:
 151 005c 0024     		movs	r4, #0
 152              	.L9:
 153              	.LVL22:
  63:Voltage_Monitoring.c ****                 {
 154              		.loc 1 63 0 is_stmt 0 discriminator 1
 155 005e 022C     		cmp	r4, #2
 156 0060 EADD     		ble	.L11
 157 0062 6AE0     		b	.L12
ARM GAS  C:\Users\KOOMOO~1\AppData\Local\Temp\ccPs7lGc.s 			page 5


 158              	.LVL23:
 159              	.L30:
  70:Voltage_Monitoring.c ****                 }
  71:Voltage_Monitoring.c ****             } else if (volts < 5.0 && volts >= 4.5) {
 160              		.loc 1 71 0 is_stmt 1
 161 0064 3046     		mov	r0, r6
 162 0066 3E49     		ldr	r1, .L32+8
 163 0068 FFF7FEFF 		bl	__aeabi_fcmplt
 164              	.LVL24:
 165 006c D8B1     		cbz	r0, .L13
 166              		.loc 1 71 0 is_stmt 0 discriminator 1
 167 006e 3046     		mov	r0, r6
 168 0070 3C49     		ldr	r1, .L32+12
 169 0072 FFF7FEFF 		bl	__aeabi_fcmpge
 170              	.LVL25:
 171 0076 90B9     		cbnz	r0, .L24
 172 0078 15E0     		b	.L13
 173              	.LVL26:
 174              	.L16:
  72:Voltage_Monitoring.c ****              for (i = 0; i < 6; i++) 
  73:Voltage_Monitoring.c ****                 {
  74:Voltage_Monitoring.c ****                     Beep(40, 80);
 175              		.loc 1 74 0 is_stmt 1 discriminator 3
 176 007a 2820     		movs	r0, #40
 177 007c 5021     		movs	r1, #80
 178 007e FFF7FEFF 		bl	Beep
 179              	.LVL27:
  75:Voltage_Monitoring.c ****                     BatteryLed_Write(1);
 180              		.loc 1 75 0 discriminator 3
 181 0082 0120     		movs	r0, #1
 182 0084 FFF7FEFF 		bl	BatteryLed_Write
 183              	.LVL28:
  76:Voltage_Monitoring.c ****                     BatteryLed_Read();
 184              		.loc 1 76 0 discriminator 3
 185 0088 FFF7FEFF 		bl	BatteryLed_Read
 186              	.LVL29:
  77:Voltage_Monitoring.c ****                     CyDelay(500);
 187              		.loc 1 77 0 discriminator 3
 188 008c 4FF4FA70 		mov	r0, #500
 189 0090 FFF7FEFF 		bl	CyDelay
 190              	.LVL30:
  78:Voltage_Monitoring.c ****                     BatteryLed_Write(0);
 191              		.loc 1 78 0 discriminator 3
 192 0094 0020     		movs	r0, #0
 193 0096 FFF7FEFF 		bl	BatteryLed_Write
 194              	.LVL31:
  72:Voltage_Monitoring.c ****                 {
 195              		.loc 1 72 0 discriminator 3
 196 009a 0134     		adds	r4, r4, #1
 197              	.LVL32:
 198 009c 00E0     		b	.L15
 199              	.LVL33:
 200              	.L24:
 201 009e 0024     		movs	r4, #0
 202              	.L15:
 203              	.LVL34:
  72:Voltage_Monitoring.c ****                 {
ARM GAS  C:\Users\KOOMOO~1\AppData\Local\Temp\ccPs7lGc.s 			page 6


 204              		.loc 1 72 0 is_stmt 0 discriminator 1
 205 00a0 052C     		cmp	r4, #5
 206 00a2 EADD     		ble	.L16
 207 00a4 49E0     		b	.L12
 208              	.LVL35:
 209              	.L13:
  79:Voltage_Monitoring.c ****                 }            
  80:Voltage_Monitoring.c ****             } else if (volts < 4.5 && volts >= 4.1) {
 210              		.loc 1 80 0 is_stmt 1
 211 00a6 3046     		mov	r0, r6
 212 00a8 2E49     		ldr	r1, .L32+12
 213 00aa FFF7FEFF 		bl	__aeabi_fcmplt
 214              	.LVL36:
 215 00ae F8B1     		cbz	r0, .L17
 216              		.loc 1 80 0 is_stmt 0 discriminator 1
 217 00b0 3046     		mov	r0, r6
 218 00b2 FFF7FEFF 		bl	__aeabi_f2d
 219              	.LVL37:
 220 00b6 28A3     		adr	r3, .L32
 221 00b8 D3E90023 		ldrd	r2, [r3]
 222 00bc FFF7FEFF 		bl	__aeabi_dcmpge
 223              	.LVL38:
 224 00c0 90B9     		cbnz	r0, .L25
 225 00c2 15E0     		b	.L17
 226              	.LVL39:
 227              	.L20:
  81:Voltage_Monitoring.c ****             
  82:Voltage_Monitoring.c ****                 for (i = 0; i < 9; i++) 
  83:Voltage_Monitoring.c ****                 {
  84:Voltage_Monitoring.c ****                     Beep(30, 95);
 228              		.loc 1 84 0 is_stmt 1 discriminator 3
 229 00c4 1E20     		movs	r0, #30
 230 00c6 5F21     		movs	r1, #95
 231 00c8 FFF7FEFF 		bl	Beep
 232              	.LVL40:
  85:Voltage_Monitoring.c ****                     BatteryLed_Write(1);
 233              		.loc 1 85 0 discriminator 3
 234 00cc 0120     		movs	r0, #1
 235 00ce FFF7FEFF 		bl	BatteryLed_Write
 236              	.LVL41:
  86:Voltage_Monitoring.c ****                     BatteryLed_Read();
 237              		.loc 1 86 0 discriminator 3
 238 00d2 FFF7FEFF 		bl	BatteryLed_Read
 239              	.LVL42:
  87:Voltage_Monitoring.c ****                     CyDelay(400);
 240              		.loc 1 87 0 discriminator 3
 241 00d6 4FF4C870 		mov	r0, #400
 242 00da FFF7FEFF 		bl	CyDelay
 243              	.LVL43:
  88:Voltage_Monitoring.c ****                     BatteryLed_Write(0);
 244              		.loc 1 88 0 discriminator 3
 245 00de 0020     		movs	r0, #0
 246 00e0 FFF7FEFF 		bl	BatteryLed_Write
 247              	.LVL44:
  82:Voltage_Monitoring.c ****                 {
 248              		.loc 1 82 0 discriminator 3
 249 00e4 0134     		adds	r4, r4, #1
ARM GAS  C:\Users\KOOMOO~1\AppData\Local\Temp\ccPs7lGc.s 			page 7


 250              	.LVL45:
 251 00e6 00E0     		b	.L19
 252              	.LVL46:
 253              	.L25:
 254 00e8 0024     		movs	r4, #0
 255              	.L19:
 256              	.LVL47:
  82:Voltage_Monitoring.c ****                 {
 257              		.loc 1 82 0 is_stmt 0 discriminator 1
 258 00ea 082C     		cmp	r4, #8
 259 00ec EADD     		ble	.L20
 260 00ee 24E0     		b	.L12
 261              	.LVL48:
 262              	.L17:
  89:Voltage_Monitoring.c ****                 }       
  90:Voltage_Monitoring.c ****             } else if (volts < 4.1) {
 263              		.loc 1 90 0 is_stmt 1
 264 00f0 3046     		mov	r0, r6
 265 00f2 FFF7FEFF 		bl	__aeabi_f2d
 266              	.LVL49:
 267 00f6 0446     		mov	r4, r0
 268 00f8 0D46     		mov	r5, r1
 269 00fa 17A3     		adr	r3, .L32
 270 00fc D3E90023 		ldrd	r2, [r3]
 271 0100 FFF7FEFF 		bl	__aeabi_dcmplt
 272              	.LVL50:
 273 0104 C8B1     		cbz	r0, .L12
  91:Voltage_Monitoring.c ****                 
  92:Voltage_Monitoring.c ****                 motor_stop(); // what else needs to be stopped?
 274              		.loc 1 92 0
 275 0106 FFF7FEFF 		bl	motor_stop
 276              	.LVL51:
 277              	.L22:
  93:Voltage_Monitoring.c ****             
  94:Voltage_Monitoring.c ****                 while (1) 
  95:Voltage_Monitoring.c ****                 {
  96:Voltage_Monitoring.c ****                     Beep(20, 110);
 278              		.loc 1 96 0 discriminator 1
 279 010a 1420     		movs	r0, #20
 280 010c 6E21     		movs	r1, #110
 281 010e FFF7FEFF 		bl	Beep
 282              	.LVL52:
  97:Voltage_Monitoring.c ****                     BatteryLed_Write(1);
 283              		.loc 1 97 0 discriminator 1
 284 0112 0120     		movs	r0, #1
 285 0114 FFF7FEFF 		bl	BatteryLed_Write
 286              	.LVL53:
  98:Voltage_Monitoring.c ****                     BatteryLed_Read();
 287              		.loc 1 98 0 discriminator 1
 288 0118 FFF7FEFF 		bl	BatteryLed_Read
 289              	.LVL54:
  99:Voltage_Monitoring.c ****                     CyDelay(200);
 290              		.loc 1 99 0 discriminator 1
 291 011c C820     		movs	r0, #200
 292 011e FFF7FEFF 		bl	CyDelay
 293              	.LVL55:
 100:Voltage_Monitoring.c ****                     BatteryLed_Write(0);
ARM GAS  C:\Users\KOOMOO~1\AppData\Local\Temp\ccPs7lGc.s 			page 8


 294              		.loc 1 100 0 discriminator 1
 295 0122 0020     		movs	r0, #0
 296 0124 FFF7FEFF 		bl	BatteryLed_Write
 297              	.LVL56:
 101:Voltage_Monitoring.c ****                     printf("%f \n", volts);
 298              		.loc 1 101 0 discriminator 1
 299 0128 0F48     		ldr	r0, .L32+16
 300 012a 2246     		mov	r2, r4
 301 012c 2B46     		mov	r3, r5
 302 012e FFF7FEFF 		bl	printf
 303              	.LVL57:
 102:Voltage_Monitoring.c ****                     printf("DANGER! Battery LOW! Please charge ASAP!!!\n");
 304              		.loc 1 102 0 discriminator 1
 305 0132 0E48     		ldr	r0, .L32+20
 306 0134 FFF7FEFF 		bl	puts
 307              	.LVL58:
 103:Voltage_Monitoring.c ****                 }                      
 308              		.loc 1 103 0 discriminator 1
 309 0138 E7E7     		b	.L22
 310              	.L12:
 104:Voltage_Monitoring.c ****             }
 105:Voltage_Monitoring.c ****                   
 106:Voltage_Monitoring.c ****             // Print bit & voltage values
 107:Voltage_Monitoring.c ****             printf("%d %f\r\n",adcresult, volts);
 311              		.loc 1 107 0
 312 013a 3046     		mov	r0, r6
 313 013c FFF7FEFF 		bl	__aeabi_f2d
 314              	.LVL59:
 315 0140 0246     		mov	r2, r0
 316 0142 0B46     		mov	r3, r1
 317 0144 0A48     		ldr	r0, .L32+24
 318 0146 3946     		mov	r1, r7
 319 0148 FFF7FEFF 		bl	printf
 320              	.LVL60:
 321              	.L7:
 108:Voltage_Monitoring.c ****         }
 109:Voltage_Monitoring.c ****             CyDelay(500);
 322              		.loc 1 109 0
 323 014c 4FF4FA70 		mov	r0, #500
 324 0150 FFF7FEFF 		bl	CyDelay
 325              	.LVL61:
 326              	.L5:
 327 0154 F8BD     		pop	{r3, r4, r5, r6, r7, pc}
 328              	.L33:
 329 0156 00BF     		.align	3
 330              	.L32:
 331 0158 66666666 		.word	1717986918
 332 015c 66661040 		.word	1074816614
 333 0160 0000A040 		.word	1084227584
 334 0164 00009040 		.word	1083179008
 335 0168 00000000 		.word	.LC0
 336 016c 08000000 		.word	.LC1
 337 0170 34000000 		.word	.LC2
 338              		.cfi_endproc
 339              	.LFE64:
 340              		.size	Measure_Voltage, .-Measure_Voltage
 341 0174 AFF30080 		.section	.rodata.str1.4,"aMS",%progbits,1
ARM GAS  C:\Users\KOOMOO~1\AppData\Local\Temp\ccPs7lGc.s 			page 9


 342              		.align	2
 343              	.LC0:
 344 0000 2566200A 		.ascii	"%f \012\000"
 344      00
 345 0005 000000   		.space	3
 346              	.LC1:
 347 0008 44414E47 		.ascii	"DANGER! Battery LOW! Please charge ASAP!!!\000"
 347      45522120 
 347      42617474 
 347      65727920 
 347      4C4F5721 
 348 0033 00       		.space	1
 349              	.LC2:
 350 0034 25642025 		.ascii	"%d %f\015\012\000"
 350      660D0A00 
 351              		.text
 352              	.Letext0:
 353              		.file 2 "c:\\program files (x86)\\cypress\\psoc creator\\4.0\\psoc creator\\import\\gnu\\arm\\4.9.
 354              		.file 3 "c:\\program files (x86)\\cypress\\psoc creator\\4.0\\psoc creator\\import\\gnu\\arm\\4.9.
 355              		.file 4 "Generated_Source\\PSoC5/cytypes.h"
 356              		.file 5 "Generated_Source\\PSoC5/ADC_Battery.h"
 357              		.file 6 "Generated_Source\\PSoC5/BatteryLed.h"
 358              		.file 7 "Generated_Source\\PSoC5/CyLib.h"
 359              		.file 8 "c:\\program files (x86)\\cypress\\psoc creator\\4.0\\psoc creator\\import\\gnu\\arm\\4.9.
 360              		.file 9 "<built-in>"
 361              		.file 10 "Generated_Source\\PSoC5/core_cm3.h"