ARM GAS  C:\Users\VILLEL~1\AppData\Local\Temp\ccGbdZPX.s 			page 1


   1              		.syntax unified
   2              		.cpu cortex-m3
   3              		.fpu softvfp
   4              		.eabi_attribute 20, 1
   5              		.eabi_attribute 21, 1
   6              		.eabi_attribute 23, 3
   7              		.eabi_attribute 24, 1
   8              		.eabi_attribute 25, 1
   9              		.eabi_attribute 26, 1
  10              		.eabi_attribute 30, 1
  11              		.eabi_attribute 34, 1
  12              		.eabi_attribute 18, 4
  13              		.thumb
  14              		.file	"Voltage_Management.c"
  15              		.text
  16              	.Ltext0:
  17              		.cfi_sections	.debug_frame
  18              		.global	__aeabi_i2d
  19              		.global	__aeabi_ddiv
  20              		.global	__aeabi_dmul
  21              		.global	__aeabi_d2f
  22              		.section	.text.ADC_result_to_volts,"ax",%progbits
  23              		.align	2
  24              		.global	ADC_result_to_volts
  25              		.thumb
  26              		.thumb_func
  27              		.type	ADC_result_to_volts, %function
  28              	ADC_result_to_volts:
  29              	.LFB63:
  30              		.file 1 "Voltage_Management.c"
   1:Voltage_Management.c **** 
   2:Voltage_Management.c **** #include <project.h>
   3:Voltage_Management.c **** #include <stdio.h>
   4:Voltage_Management.c **** #include "Motor.h"
   5:Voltage_Management.c **** #include "Ultra.h"
   6:Voltage_Management.c **** #include "Nunchuk.h"
   7:Voltage_Management.c **** #include "Reflectance.h"
   8:Voltage_Management.c **** #include "I2C_made.h"
   9:Voltage_Management.c **** #include "Gyro.h"
  10:Voltage_Management.c **** #include "Accel_magnet.h"
  11:Voltage_Management.c **** #include "IR.h"
  12:Voltage_Management.c **** #include "Ambient.h"
  13:Voltage_Management.c **** #include "Beep.h"
  14:Voltage_Management.c **** 
  15:Voltage_Management.c **** float ADC_result_to_volts(int16 adcresult);
  16:Voltage_Management.c **** void Beep(uint32 length, uint8 pitch);
  17:Voltage_Management.c **** void Measure_Voltage();
  18:Voltage_Management.c **** 
  19:Voltage_Management.c **** // Subroutine for custom unit conversion (used below in Measure_Voltage()).
  20:Voltage_Management.c **** float ADC_result_to_volts(int16 adcresult)
  21:Voltage_Management.c **** {
  31              		.loc 1 21 0
  32              		.cfi_startproc
  33              		@ args = 0, pretend = 0, frame = 0
  34              		@ frame_needed = 0, uses_anonymous_args = 0
  35              	.LVL0:
  36 0000 08B5     		push	{r3, lr}
ARM GAS  C:\Users\VILLEL~1\AppData\Local\Temp\ccGbdZPX.s 			page 2


  37              		.cfi_def_cfa_offset 8
  38              		.cfi_offset 3, -8
  39              		.cfi_offset 14, -4
  22:Voltage_Management.c ****     float volts;
  23:Voltage_Management.c ****     
  24:Voltage_Management.c ****     volts = (adcresult / 4095.0) * (1.5 * 5.0);
  40              		.loc 1 24 0
  41 0002 FFF7FEFF 		bl	__aeabi_i2d
  42              	.LVL1:
  43 0006 06A3     		adr	r3, .L3
  44 0008 D3E90023 		ldrd	r2, [r3]
  45 000c FFF7FEFF 		bl	__aeabi_ddiv
  46              	.LVL2:
  47 0010 0022     		movs	r2, #0
  48 0012 054B     		ldr	r3, .L3+8
  49 0014 FFF7FEFF 		bl	__aeabi_dmul
  50              	.LVL3:
  51 0018 FFF7FEFF 		bl	__aeabi_d2f
  52              	.LVL4:
  25:Voltage_Management.c ****     
  26:Voltage_Management.c ****     return volts;
  27:Voltage_Management.c ****     
  28:Voltage_Management.c **** }
  53              		.loc 1 28 0
  54 001c 08BD     		pop	{r3, pc}
  55              	.L4:
  56 001e 00BF     		.align	3
  57              	.L3:
  58 0020 00000000 		.word	0
  59 0024 00FEAF40 		.word	1085275648
  60 0028 00001E40 		.word	1075707904
  61              		.cfi_endproc
  62              	.LFE63:
  63              		.size	ADC_result_to_volts, .-ADC_result_to_volts
  64              		.global	__aeabi_fcmpge
  65              		.global	__aeabi_fcmplt
  66              		.global	__aeabi_f2d
  67              		.global	__aeabi_dcmpge
  68 002c AFF30080 		.section	.text.Measure_Voltage,"ax",%progbits
  69              		.align	2
  70              		.global	Measure_Voltage
  71              		.thumb
  72              		.thumb_func
  73              		.type	Measure_Voltage, %function
  74              	Measure_Voltage:
  75              	.LFB64:
  29:Voltage_Management.c **** 
  30:Voltage_Management.c **** // For measuring the voltage of the batteries at regular intervals. Used in main.c.
  31:Voltage_Management.c **** void Measure_Voltage()
  32:Voltage_Management.c **** {
  76              		.loc 1 32 0
  77              		.cfi_startproc
  78              		@ args = 0, pretend = 0, frame = 0
  79              		@ frame_needed = 0, uses_anonymous_args = 0
  80 0000 70B5     		push	{r4, r5, r6, lr}
  81              		.cfi_def_cfa_offset 16
  82              		.cfi_offset 4, -16
ARM GAS  C:\Users\VILLEL~1\AppData\Local\Temp\ccGbdZPX.s 			page 3


  83              		.cfi_offset 5, -12
  84              		.cfi_offset 6, -8
  85              		.cfi_offset 14, -4
  86              	.LVL5:
  33:Voltage_Management.c ****     int16 adcresult = 0;
  34:Voltage_Management.c ****     float volts = 0.0;
  35:Voltage_Management.c ****     
  36:Voltage_Management.c ****     int i;
  37:Voltage_Management.c ****     
  38:Voltage_Management.c ****     ADC_Battery_StartConvert();
  87              		.loc 1 38 0
  88 0002 FFF7FEFF 		bl	ADC_Battery_StartConvert
  89              	.LVL6:
  39:Voltage_Management.c ****     if(ADC_Battery_IsEndConversion(ADC_Battery_WAIT_FOR_RESULT)) 
  90              		.loc 1 39 0
  91 0006 0020     		movs	r0, #0
  92 0008 FFF7FEFF 		bl	ADC_Battery_IsEndConversion
  93              	.LVL7:
  94 000c 0028     		cmp	r0, #0
  95 000e 63D0     		beq	.L6
  40:Voltage_Management.c ****     {   // wait for get ADC converted value
  41:Voltage_Management.c ****         adcresult = ADC_Battery_GetResult16();
  96              		.loc 1 41 0
  97 0010 FFF7FEFF 		bl	ADC_Battery_GetResult16
  98              	.LVL8:
  99 0014 0646     		mov	r6, r0
 100              	.LVL9:
  42:Voltage_Management.c ****         volts = ADC_result_to_volts(adcresult); // convert value to Volts
 101              		.loc 1 42 0
 102 0016 FFF7FEFF 		bl	ADC_result_to_volts
 103              	.LVL10:
 104 001a 0446     		mov	r4, r0
 105              	.LVL11:
  43:Voltage_Management.c ****         
  44:Voltage_Management.c ****         // Different types of beep sounds for different voltage levels. If the charge is over 5.0 V
  45:Voltage_Management.c ****         // three long and low-sounding beeps; from 5.0 to 4.5 V, six medium-length, medium-pitch be
  46:Voltage_Management.c ****         // 4.1 V, 9 loud and sharp beeps; and finally if the voltage reaches 4.1 V, there will be a
  47:Voltage_Management.c ****         if (volts >= 5.0)
 106              		.loc 1 47 0
 107 001c 3449     		ldr	r1, .L26+8
 108 001e FFF7FEFF 		bl	__aeabi_fcmpge
 109              	.LVL12:
 110 0022 50B9     		cbnz	r0, .L19
 111 0024 0DE0     		b	.L24
 112              	.LVL13:
 113              	.L9:
  48:Voltage_Management.c ****         { for (i = 0; i < 3; i++) 
  49:Voltage_Management.c ****             {
  50:Voltage_Management.c ****                 Beep(80, 60);
 114              		.loc 1 50 0 discriminator 3
 115 0026 5020     		movs	r0, #80
 116 0028 3C21     		movs	r1, #60
 117 002a FFF7FEFF 		bl	Beep
 118              	.LVL14:
  51:Voltage_Management.c ****                 CyDelay(1000);
 119              		.loc 1 51 0 discriminator 3
 120 002e 4FF47A70 		mov	r0, #1000
ARM GAS  C:\Users\VILLEL~1\AppData\Local\Temp\ccGbdZPX.s 			page 4


 121 0032 FFF7FEFF 		bl	CyDelay
 122              	.LVL15:
  48:Voltage_Management.c ****         { for (i = 0; i < 3; i++) 
 123              		.loc 1 48 0 discriminator 3
 124 0036 0135     		adds	r5, r5, #1
 125              	.LVL16:
 126 0038 00E0     		b	.L7
 127              	.LVL17:
 128              	.L19:
 129 003a 0025     		movs	r5, #0
 130              	.L7:
 131              	.LVL18:
  48:Voltage_Management.c ****         { for (i = 0; i < 3; i++) 
 132              		.loc 1 48 0 is_stmt 0 discriminator 1
 133 003c 022D     		cmp	r5, #2
 134 003e F2DD     		ble	.L9
 135 0040 41E0     		b	.L10
 136              	.LVL19:
 137              	.L24:
  52:Voltage_Management.c ****             }
  53:Voltage_Management.c ****         } else if (volts < 5.0 && volts >= 4.5) {
 138              		.loc 1 53 0 is_stmt 1
 139 0042 2046     		mov	r0, r4
 140 0044 2A49     		ldr	r1, .L26+8
 141 0046 FFF7FEFF 		bl	__aeabi_fcmplt
 142              	.LVL20:
 143 004a 98B1     		cbz	r0, .L11
 144              		.loc 1 53 0 is_stmt 0 discriminator 1
 145 004c 2046     		mov	r0, r4
 146 004e 2949     		ldr	r1, .L26+12
 147 0050 FFF7FEFF 		bl	__aeabi_fcmpge
 148              	.LVL21:
 149 0054 50B9     		cbnz	r0, .L20
 150 0056 0DE0     		b	.L11
 151              	.LVL22:
 152              	.L14:
  54:Voltage_Management.c ****          for (i = 0; i < 6; i++) 
  55:Voltage_Management.c ****             {
  56:Voltage_Management.c ****                 Beep(40, 80);
 153              		.loc 1 56 0 is_stmt 1 discriminator 3
 154 0058 2820     		movs	r0, #40
 155 005a 5021     		movs	r1, #80
 156 005c FFF7FEFF 		bl	Beep
 157              	.LVL23:
  57:Voltage_Management.c ****                 CyDelay(1000);
 158              		.loc 1 57 0 discriminator 3
 159 0060 4FF47A70 		mov	r0, #1000
 160 0064 FFF7FEFF 		bl	CyDelay
 161              	.LVL24:
  54:Voltage_Management.c ****          for (i = 0; i < 6; i++) 
 162              		.loc 1 54 0 discriminator 3
 163 0068 0135     		adds	r5, r5, #1
 164              	.LVL25:
 165 006a 00E0     		b	.L13
 166              	.LVL26:
 167              	.L20:
 168 006c 0025     		movs	r5, #0
ARM GAS  C:\Users\VILLEL~1\AppData\Local\Temp\ccGbdZPX.s 			page 5


 169              	.L13:
 170              	.LVL27:
  54:Voltage_Management.c ****          for (i = 0; i < 6; i++) 
 171              		.loc 1 54 0 is_stmt 0 discriminator 1
 172 006e 052D     		cmp	r5, #5
 173 0070 F2DD     		ble	.L14
 174 0072 28E0     		b	.L10
 175              	.LVL28:
 176              	.L11:
  58:Voltage_Management.c ****             }            
  59:Voltage_Management.c ****         } else if (volts < 4.5 && volts >= 4.1) {
 177              		.loc 1 59 0 is_stmt 1
 178 0074 2046     		mov	r0, r4
 179 0076 1F49     		ldr	r1, .L26+12
 180 0078 FFF7FEFF 		bl	__aeabi_fcmplt
 181              	.LVL29:
 182 007c B8B1     		cbz	r0, .L15
 183              		.loc 1 59 0 is_stmt 0 discriminator 1
 184 007e 2046     		mov	r0, r4
 185 0080 FFF7FEFF 		bl	__aeabi_f2d
 186              	.LVL30:
 187 0084 18A3     		adr	r3, .L26
 188 0086 D3E90023 		ldrd	r2, [r3]
 189 008a FFF7FEFF 		bl	__aeabi_dcmpge
 190              	.LVL31:
 191 008e 50B9     		cbnz	r0, .L21
 192 0090 0DE0     		b	.L15
 193              	.LVL32:
 194              	.L18:
  60:Voltage_Management.c ****         
  61:Voltage_Management.c ****             for (i = 0; i < 9; i++) 
  62:Voltage_Management.c ****             {
  63:Voltage_Management.c ****                 Beep(30, 95);
 195              		.loc 1 63 0 is_stmt 1 discriminator 3
 196 0092 1E20     		movs	r0, #30
 197 0094 5F21     		movs	r1, #95
 198 0096 FFF7FEFF 		bl	Beep
 199              	.LVL33:
  64:Voltage_Management.c ****                 CyDelay(1000);
 200              		.loc 1 64 0 discriminator 3
 201 009a 4FF47A70 		mov	r0, #1000
 202 009e FFF7FEFF 		bl	CyDelay
 203              	.LVL34:
  61:Voltage_Management.c ****             {
 204              		.loc 1 61 0 discriminator 3
 205 00a2 0135     		adds	r5, r5, #1
 206              	.LVL35:
 207 00a4 00E0     		b	.L17
 208              	.LVL36:
 209              	.L21:
 210 00a6 0025     		movs	r5, #0
 211              	.L17:
 212              	.LVL37:
  61:Voltage_Management.c ****             {
 213              		.loc 1 61 0 is_stmt 0 discriminator 1
 214 00a8 082D     		cmp	r5, #8
 215 00aa F2DD     		ble	.L18
ARM GAS  C:\Users\VILLEL~1\AppData\Local\Temp\ccGbdZPX.s 			page 6


 216 00ac 0BE0     		b	.L10
 217              	.LVL38:
 218              	.L15:
  65:Voltage_Management.c ****             }       
  66:Voltage_Management.c ****         } else {
  67:Voltage_Management.c ****         
  68:Voltage_Management.c ****             while (1) 
  69:Voltage_Management.c ****             {
  70:Voltage_Management.c ****                 Beep(20, 110);
 219              		.loc 1 70 0 is_stmt 1 discriminator 1
 220 00ae 1420     		movs	r0, #20
 221 00b0 6E21     		movs	r1, #110
 222 00b2 FFF7FEFF 		bl	Beep
 223              	.LVL39:
  71:Voltage_Management.c ****                 CyDelay(1000);
 224              		.loc 1 71 0 discriminator 1
 225 00b6 4FF47A70 		mov	r0, #1000
 226 00ba FFF7FEFF 		bl	CyDelay
 227              	.LVL40:
  72:Voltage_Management.c ****                 printf("DANGER! Battery LOW! Please charge ASAP!!!\n");
 228              		.loc 1 72 0 discriminator 1
 229 00be 0E48     		ldr	r0, .L26+16
 230 00c0 FFF7FEFF 		bl	puts
 231              	.LVL41:
  73:Voltage_Management.c ****             }
 232              		.loc 1 73 0 discriminator 1
 233 00c4 F3E7     		b	.L15
 234              	.LVL42:
 235              	.L10:
  74:Voltage_Management.c ****        
  75:Voltage_Management.c ****         }
  76:Voltage_Management.c ****         
  77:Voltage_Management.c ****         
  78:Voltage_Management.c ****         // Print value
  79:Voltage_Management.c ****         printf("%d %f\r\n",adcresult, volts);
 236              		.loc 1 79 0
 237 00c6 2046     		mov	r0, r4
 238 00c8 FFF7FEFF 		bl	__aeabi_f2d
 239              	.LVL43:
 240 00cc 0246     		mov	r2, r0
 241 00ce 0B46     		mov	r3, r1
 242 00d0 0A48     		ldr	r0, .L26+20
 243 00d2 3146     		mov	r1, r6
 244 00d4 FFF7FEFF 		bl	printf
 245              	.LVL44:
 246              	.L6:
  80:Voltage_Management.c ****     }
  81:Voltage_Management.c ****         CyDelay(500);
 247              		.loc 1 81 0
 248 00d8 4FF4FA70 		mov	r0, #500
 249 00dc FFF7FEFF 		bl	CyDelay
 250              	.LVL45:
 251 00e0 70BD     		pop	{r4, r5, r6, pc}
 252              	.L27:
 253 00e2 00BFAFF3 		.align	3
 253      0080
 254              	.L26:
ARM GAS  C:\Users\VILLEL~1\AppData\Local\Temp\ccGbdZPX.s 			page 7


 255 00e8 66666666 		.word	1717986918
 256 00ec 66661040 		.word	1074816614
 257 00f0 0000A040 		.word	1084227584
 258 00f4 00009040 		.word	1083179008
 259 00f8 00000000 		.word	.LC0
 260 00fc 2C000000 		.word	.LC1
 261              		.cfi_endproc
 262              	.LFE64:
 263              		.size	Measure_Voltage, .-Measure_Voltage
 264              		.section	.rodata.str1.4,"aMS",%progbits,1
 265              		.align	2
 266              	.LC0:
 267 0000 44414E47 		.ascii	"DANGER! Battery LOW! Please charge ASAP!!!\000"
 267      45522120 
 267      42617474 
 267      65727920 
 267      4C4F5721 
 268 002b 00       		.space	1
 269              	.LC1:
 270 002c 25642025 		.ascii	"%d %f\015\012\000"
 270      660D0A00 
 271              		.text
 272              	.Letext0:
 273              		.file 2 "c:\\program files (x86)\\cypress\\psoc creator\\4.0\\psoc creator\\import\\gnu\\arm\\4.9.
 274              		.file 3 "c:\\program files (x86)\\cypress\\psoc creator\\4.0\\psoc creator\\import\\gnu\\arm\\4.9.
 275              		.file 4 "Generated_Source\\PSoC5/cytypes.h"
 276              		.file 5 "Generated_Source\\PSoC5/CyLib.h"
 277              		.file 6 "<built-in>"
 278              		.file 7 "c:\\program files (x86)\\cypress\\psoc creator\\4.0\\psoc creator\\import\\gnu\\arm\\4.9.
 279              		.file 8 "Generated_Source\\PSoC5/core_cm3.h"
 280              		.file 9 "Generated_Source\\PSoC5/ADC_Battery.h"